
program.elf:     file format elf32-avr

Sections:
Idx Name          Size      VMA       LMA       File off  Algn
  0 .text         00002de0  00000000  00000000  00000094  2**1
                  CONTENTS, ALLOC, LOAD, READONLY, CODE
  1 .data         00000122  00800060  00002de0  00002e74  2**0
                  CONTENTS, ALLOC, LOAD, DATA
  2 .bss          00000031  00800182  00800182  00002f96  2**0
                  ALLOC
  3 .debug_aranges 00000080  00000000  00000000  00002f96  2**0
                  CONTENTS, READONLY, DEBUGGING
  4 .debug_pubnames 0000020e  00000000  00000000  00003016  2**0
                  CONTENTS, READONLY, DEBUGGING
  5 .debug_info   00001639  00000000  00000000  00003224  2**0
                  CONTENTS, READONLY, DEBUGGING
  6 .debug_abbrev 00000672  00000000  00000000  0000485d  2**0
                  CONTENTS, READONLY, DEBUGGING
  7 .debug_line   00000bc3  00000000  00000000  00004ecf  2**0
                  CONTENTS, READONLY, DEBUGGING
  8 .debug_frame  000001d0  00000000  00000000  00005a94  2**2
                  CONTENTS, READONLY, DEBUGGING
  9 .debug_str    000002fd  00000000  00000000  00005c64  2**0
                  CONTENTS, READONLY, DEBUGGING
 10 .debug_loc    00001c72  00000000  00000000  00005f61  2**0
                  CONTENTS, READONLY, DEBUGGING
 11 .debug_ranges 00000060  00000000  00000000  00007bd3  2**0
                  CONTENTS, READONLY, DEBUGGING

Disassembly of section .text:

00000000 <__vectors>:
       0:	0c 94 2a 00 	jmp	0x54	; 0x54 <__ctors_end>
       4:	0c 94 47 00 	jmp	0x8e	; 0x8e <__bad_interrupt>
       8:	0c 94 20 02 	jmp	0x440	; 0x440 <__vector_2>
       c:	0c 94 47 00 	jmp	0x8e	; 0x8e <__bad_interrupt>
      10:	0c 94 8d 01 	jmp	0x31a	; 0x31a <__vector_4>
      14:	0c 94 47 00 	jmp	0x8e	; 0x8e <__bad_interrupt>
      18:	0c 94 47 00 	jmp	0x8e	; 0x8e <__bad_interrupt>
      1c:	0c 94 47 00 	jmp	0x8e	; 0x8e <__bad_interrupt>
      20:	0c 94 47 00 	jmp	0x8e	; 0x8e <__bad_interrupt>
      24:	0c 94 47 00 	jmp	0x8e	; 0x8e <__bad_interrupt>
      28:	0c 94 47 00 	jmp	0x8e	; 0x8e <__bad_interrupt>
      2c:	0c 94 47 00 	jmp	0x8e	; 0x8e <__bad_interrupt>
      30:	0c 94 47 00 	jmp	0x8e	; 0x8e <__bad_interrupt>
      34:	0c 94 5a 01 	jmp	0x2b4	; 0x2b4 <__vector_13>
      38:	0c 94 47 00 	jmp	0x8e	; 0x8e <__bad_interrupt>
      3c:	0c 94 47 00 	jmp	0x8e	; 0x8e <__bad_interrupt>
      40:	0c 94 47 00 	jmp	0x8e	; 0x8e <__bad_interrupt>
      44:	0c 94 47 00 	jmp	0x8e	; 0x8e <__bad_interrupt>
      48:	0c 94 47 00 	jmp	0x8e	; 0x8e <__bad_interrupt>
      4c:	0c 94 47 00 	jmp	0x8e	; 0x8e <__bad_interrupt>
      50:	0c 94 47 00 	jmp	0x8e	; 0x8e <__bad_interrupt>

00000054 <__ctors_end>:
      54:	11 24       	eor	r1, r1
      56:	1f be       	out	0x3f, r1	; 63
      58:	cf e5       	ldi	r28, 0x5F	; 95
      5a:	d8 e0       	ldi	r29, 0x08	; 8
      5c:	de bf       	out	0x3e, r29	; 62
      5e:	cd bf       	out	0x3d, r28	; 61

00000060 <__do_copy_data>:
      60:	11 e0       	ldi	r17, 0x01	; 1
      62:	a0 e6       	ldi	r26, 0x60	; 96
      64:	b0 e0       	ldi	r27, 0x00	; 0
      66:	e0 ee       	ldi	r30, 0xE0	; 224
      68:	fd e2       	ldi	r31, 0x2D	; 45
      6a:	02 c0       	rjmp	.+4      	; 0x70 <.do_copy_data_start>

0000006c <.do_copy_data_loop>:
      6c:	05 90       	lpm	r0, Z+
      6e:	0d 92       	st	X+, r0

00000070 <.do_copy_data_start>:
      70:	a2 38       	cpi	r26, 0x82	; 130
      72:	b1 07       	cpc	r27, r17
      74:	d9 f7       	brne	.-10     	; 0x6c <.do_copy_data_loop>

00000076 <__do_clear_bss>:
      76:	11 e0       	ldi	r17, 0x01	; 1
      78:	a2 e8       	ldi	r26, 0x82	; 130
      7a:	b1 e0       	ldi	r27, 0x01	; 1
      7c:	01 c0       	rjmp	.+2      	; 0x80 <.do_clear_bss_start>

0000007e <.do_clear_bss_loop>:
      7e:	1d 92       	st	X+, r1

00000080 <.do_clear_bss_start>:
      80:	a3 3b       	cpi	r26, 0xB3	; 179
      82:	b1 07       	cpc	r27, r17
      84:	e1 f7       	brne	.-8      	; 0x7e <.do_clear_bss_loop>
      86:	0e 94 41 06 	call	0xc82	; 0xc82 <main>
      8a:	0c 94 ee 16 	jmp	0x2ddc	; 0x2ddc <_exit>

0000008e <__bad_interrupt>:
      8e:	0c 94 00 00 	jmp	0	; 0x0 <__vectors>

00000092 <print_char>:

}

void print_char( unsigned char data )
{
	while ( !( UCSRA & (1<<UDRE)) );
      92:	5d 9b       	sbis	0x0b, 5	; 11
      94:	fe cf       	rjmp	.-4      	; 0x92 <print_char>
	UDR = data;
      96:	8c b9       	out	0x0c, r24	; 12
}
      98:	08 95       	ret

0000009a <print_num>:

void print_num(int num)
{
      9a:	0f 93       	push	r16
      9c:	1f 93       	push	r17
      9e:	df 93       	push	r29
      a0:	cf 93       	push	r28
      a2:	cd b7       	in	r28, 0x3d	; 61
      a4:	de b7       	in	r29, 0x3e	; 62
      a6:	2a 97       	sbiw	r28, 0x0a	; 10
      a8:	0f b6       	in	r0, 0x3f	; 63
      aa:	f8 94       	cli
      ac:	de bf       	out	0x3e, r29	; 62
      ae:	0f be       	out	0x3f, r0	; 63
      b0:	cd bf       	out	0x3d, r28	; 61
      b2:	fe 01       	movw	r30, r28
      b4:	31 96       	adiw	r30, 0x01	; 1
      b6:	9c 01       	movw	r18, r24
      b8:	00 e0       	ldi	r16, 0x00	; 0
      ba:	10 e0       	ldi	r17, 0x00	; 0
      bc:	0f c0       	rjmp	.+30     	; 0xdc <print_num+0x42>
	int c = 0;
	int n = num;
	/* extract each digit */
	while (n != 0)
	{
		numberArray[c] = n % 10;
      be:	c9 01       	movw	r24, r18
      c0:	6a e0       	ldi	r22, 0x0A	; 10
      c2:	70 e0       	ldi	r23, 0x00	; 0
      c4:	0e 94 4f 16 	call	0x2c9e	; 0x2c9e <__divmodhi4>
      c8:	81 93       	st	Z+, r24
      ca:	91 93       	st	Z+, r25
		n /= 10;
      cc:	c9 01       	movw	r24, r18
      ce:	6a e0       	ldi	r22, 0x0A	; 10
      d0:	70 e0       	ldi	r23, 0x00	; 0
      d2:	0e 94 4f 16 	call	0x2c9e	; 0x2c9e <__divmodhi4>
      d6:	9b 01       	movw	r18, r22
		c++;
      d8:	0f 5f       	subi	r16, 0xFF	; 255
      da:	1f 4f       	sbci	r17, 0xFF	; 255
{
	int numberArray[5];
	int c = 0;
	int n = num;
	/* extract each digit */
	while (n != 0)
      dc:	21 15       	cp	r18, r1
      de:	31 05       	cpc	r19, r1
      e0:	71 f7       	brne	.-36     	; 0xbe <print_num+0x24>
      e2:	01 50       	subi	r16, 0x01	; 1
      e4:	10 40       	sbci	r17, 0x00	; 0
      e6:	00 0f       	add	r16, r16
      e8:	11 1f       	adc	r17, r17
      ea:	fe 01       	movw	r30, r28
      ec:	31 96       	adiw	r30, 0x01	; 1
      ee:	e0 0f       	add	r30, r16
      f0:	f1 1f       	adc	r31, r17
	{
		numberArray[c] = n % 10;
		n /= 10;
		c++;
	}
	while(c>0)
      f2:	9e 01       	movw	r18, r28
      f4:	21 50       	subi	r18, 0x01	; 1
      f6:	30 40       	sbci	r19, 0x00	; 0
      f8:	06 c0       	rjmp	.+12     	; 0x106 <print_num+0x6c>
	{
		print_char(numberArray[--c]+'0');
      fa:	80 81       	ld	r24, Z

}

void print_char( unsigned char data )
{
	while ( !( UCSRA & (1<<UDRE)) );
      fc:	5d 9b       	sbis	0x0b, 5	; 11
      fe:	fe cf       	rjmp	.-4      	; 0xfc <print_num+0x62>
		n /= 10;
		c++;
	}
	while(c>0)
	{
		print_char(numberArray[--c]+'0');
     100:	80 5d       	subi	r24, 0xD0	; 208
}

void print_char( unsigned char data )
{
	while ( !( UCSRA & (1<<UDRE)) );
	UDR = data;
     102:	8c b9       	out	0x0c, r24	; 12
     104:	32 97       	sbiw	r30, 0x02	; 2
	{
		numberArray[c] = n % 10;
		n /= 10;
		c++;
	}
	while(c>0)
     106:	e2 17       	cp	r30, r18
     108:	f3 07       	cpc	r31, r19
     10a:	b9 f7       	brne	.-18     	; 0xfa <print_num+0x60>
	{
		print_char(numberArray[--c]+'0');
	}
}
     10c:	2a 96       	adiw	r28, 0x0a	; 10
     10e:	0f b6       	in	r0, 0x3f	; 63
     110:	f8 94       	cli
     112:	de bf       	out	0x3e, r29	; 62
     114:	0f be       	out	0x3f, r0	; 63
     116:	cd bf       	out	0x3d, r28	; 61
     118:	cf 91       	pop	r28
     11a:	df 91       	pop	r29
     11c:	1f 91       	pop	r17
     11e:	0f 91       	pop	r16
     120:	08 95       	ret

00000122 <print_ulong>:

void print_ulong(unsigned long long num)
{
     122:	2f 92       	push	r2
     124:	3f 92       	push	r3
     126:	4f 92       	push	r4
     128:	5f 92       	push	r5
     12a:	6f 92       	push	r6
     12c:	7f 92       	push	r7
     12e:	8f 92       	push	r8
     130:	9f 92       	push	r9
     132:	af 92       	push	r10
     134:	bf 92       	push	r11
     136:	cf 92       	push	r12
     138:	df 92       	push	r13
     13a:	ef 92       	push	r14
     13c:	ff 92       	push	r15
     13e:	0f 93       	push	r16
     140:	1f 93       	push	r17
     142:	df 93       	push	r29
     144:	cf 93       	push	r28
     146:	cd b7       	in	r28, 0x3d	; 61
     148:	de b7       	in	r29, 0x3e	; 62
     14a:	c4 55       	subi	r28, 0x54	; 84
     14c:	d0 40       	sbci	r29, 0x00	; 0
     14e:	0f b6       	in	r0, 0x3f	; 63
     150:	f8 94       	cli
     152:	de bf       	out	0x3e, r29	; 62
     154:	0f be       	out	0x3f, r0	; 63
     156:	cd bf       	out	0x3d, r28	; 61
     158:	4e 01       	movw	r8, r28
     15a:	08 94       	sec
     15c:	81 1c       	adc	r8, r1
     15e:	91 1c       	adc	r9, r1
     160:	62 96       	adiw	r28, 0x12	; 18
     162:	2f af       	std	Y+63, r18	; 0x3f
     164:	62 97       	sbiw	r28, 0x12	; 18
     166:	63 96       	adiw	r28, 0x13	; 19
     168:	3f af       	std	Y+63, r19	; 0x3f
     16a:	63 97       	sbiw	r28, 0x13	; 19
     16c:	64 96       	adiw	r28, 0x14	; 20
     16e:	4f af       	std	Y+63, r20	; 0x3f
     170:	64 97       	sbiw	r28, 0x14	; 20
     172:	65 96       	adiw	r28, 0x15	; 21
     174:	5f af       	std	Y+63, r21	; 0x3f
     176:	65 97       	sbiw	r28, 0x15	; 21
     178:	1b 01       	movw	r2, r22
     17a:	2c 01       	movw	r4, r24
     17c:	66 24       	eor	r6, r6
     17e:	77 24       	eor	r7, r7
     180:	47 c0       	rjmp	.+142    	; 0x210 <print_ulong+0xee>
	int c = 0;
	unsigned long long n = num;
	/* extract each digit */
	while (n != 0)
	{
		numberArray[c] = n % 10;
     182:	62 96       	adiw	r28, 0x12	; 18
     184:	2f ad       	ldd	r18, Y+63	; 0x3f
     186:	62 97       	sbiw	r28, 0x12	; 18
     188:	63 96       	adiw	r28, 0x13	; 19
     18a:	3f ad       	ldd	r19, Y+63	; 0x3f
     18c:	63 97       	sbiw	r28, 0x13	; 19
     18e:	64 96       	adiw	r28, 0x14	; 20
     190:	4f ad       	ldd	r20, Y+63	; 0x3f
     192:	64 97       	sbiw	r28, 0x14	; 20
     194:	65 96       	adiw	r28, 0x15	; 21
     196:	5f ad       	ldd	r21, Y+63	; 0x3f
     198:	65 97       	sbiw	r28, 0x15	; 21
     19a:	b1 01       	movw	r22, r2
     19c:	c2 01       	movw	r24, r4
     19e:	ea e0       	ldi	r30, 0x0A	; 10
     1a0:	ae 2e       	mov	r10, r30
     1a2:	bb 24       	eor	r11, r11
     1a4:	cc 24       	eor	r12, r12
     1a6:	dd 24       	eor	r13, r13
     1a8:	ee 24       	eor	r14, r14
     1aa:	ff 24       	eor	r15, r15
     1ac:	00 e0       	ldi	r16, 0x00	; 0
     1ae:	10 e0       	ldi	r17, 0x00	; 0
     1b0:	0e 94 5a 0e 	call	0x1cb4	; 0x1cb4 <__umoddi3>
     1b4:	f4 01       	movw	r30, r8
     1b6:	20 83       	st	Z, r18
     1b8:	31 83       	std	Z+1, r19	; 0x01
     1ba:	42 83       	std	Z+2, r20	; 0x02
     1bc:	53 83       	std	Z+3, r21	; 0x03
     1be:	64 83       	std	Z+4, r22	; 0x04
     1c0:	75 83       	std	Z+5, r23	; 0x05
     1c2:	86 83       	std	Z+6, r24	; 0x06
     1c4:	97 83       	std	Z+7, r25	; 0x07
		n /= 10;
     1c6:	62 96       	adiw	r28, 0x12	; 18
     1c8:	2f ad       	ldd	r18, Y+63	; 0x3f
     1ca:	62 97       	sbiw	r28, 0x12	; 18
     1cc:	63 96       	adiw	r28, 0x13	; 19
     1ce:	3f ad       	ldd	r19, Y+63	; 0x3f
     1d0:	63 97       	sbiw	r28, 0x13	; 19
     1d2:	64 96       	adiw	r28, 0x14	; 20
     1d4:	4f ad       	ldd	r20, Y+63	; 0x3f
     1d6:	64 97       	sbiw	r28, 0x14	; 20
     1d8:	65 96       	adiw	r28, 0x15	; 21
     1da:	5f ad       	ldd	r21, Y+63	; 0x3f
     1dc:	65 97       	sbiw	r28, 0x15	; 21
     1de:	b1 01       	movw	r22, r2
     1e0:	c2 01       	movw	r24, r4
     1e2:	0e 94 e5 07 	call	0xfca	; 0xfca <__udivdi3>
     1e6:	62 96       	adiw	r28, 0x12	; 18
     1e8:	2f af       	std	Y+63, r18	; 0x3f
     1ea:	62 97       	sbiw	r28, 0x12	; 18
     1ec:	63 96       	adiw	r28, 0x13	; 19
     1ee:	3f af       	std	Y+63, r19	; 0x3f
     1f0:	63 97       	sbiw	r28, 0x13	; 19
     1f2:	64 96       	adiw	r28, 0x14	; 20
     1f4:	4f af       	std	Y+63, r20	; 0x3f
     1f6:	64 97       	sbiw	r28, 0x14	; 20
     1f8:	65 96       	adiw	r28, 0x15	; 21
     1fa:	5f af       	std	Y+63, r21	; 0x3f
     1fc:	65 97       	sbiw	r28, 0x15	; 21
     1fe:	1b 01       	movw	r2, r22
     200:	2c 01       	movw	r4, r24
		c++;
     202:	08 94       	sec
     204:	61 1c       	adc	r6, r1
     206:	71 1c       	adc	r7, r1
     208:	88 e0       	ldi	r24, 0x08	; 8
     20a:	90 e0       	ldi	r25, 0x00	; 0
     20c:	88 0e       	add	r8, r24
     20e:	99 1e       	adc	r9, r25
{
	unsigned long long numberArray[10];
	int c = 0;
	unsigned long long n = num;
	/* extract each digit */
	while (n != 0)
     210:	62 96       	adiw	r28, 0x12	; 18
     212:	8f ad       	ldd	r24, Y+63	; 0x3f
     214:	62 97       	sbiw	r28, 0x12	; 18
     216:	63 96       	adiw	r28, 0x13	; 19
     218:	9f ad       	ldd	r25, Y+63	; 0x3f
     21a:	63 97       	sbiw	r28, 0x13	; 19
     21c:	89 2b       	or	r24, r25
     21e:	64 96       	adiw	r28, 0x14	; 20
     220:	ef ad       	ldd	r30, Y+63	; 0x3f
     222:	64 97       	sbiw	r28, 0x14	; 20
     224:	8e 2b       	or	r24, r30
     226:	65 96       	adiw	r28, 0x15	; 21
     228:	ff ad       	ldd	r31, Y+63	; 0x3f
     22a:	65 97       	sbiw	r28, 0x15	; 21
     22c:	8f 2b       	or	r24, r31
     22e:	82 29       	or	r24, r2
     230:	83 29       	or	r24, r3
     232:	84 29       	or	r24, r4
     234:	85 29       	or	r24, r5
     236:	09 f0       	breq	.+2      	; 0x23a <print_ulong+0x118>
     238:	a4 cf       	rjmp	.-184    	; 0x182 <print_ulong+0x60>
     23a:	08 94       	sec
     23c:	61 08       	sbc	r6, r1
     23e:	71 08       	sbc	r7, r1
     240:	93 e0       	ldi	r25, 0x03	; 3
     242:	66 0c       	add	r6, r6
     244:	77 1c       	adc	r7, r7
     246:	9a 95       	dec	r25
     248:	e1 f7       	brne	.-8      	; 0x242 <print_ulong+0x120>
     24a:	fe 01       	movw	r30, r28
     24c:	31 96       	adiw	r30, 0x01	; 1
     24e:	e6 0d       	add	r30, r6
     250:	f7 1d       	adc	r31, r7
	{
		numberArray[c] = n % 10;
		n /= 10;
		c++;
	}
	while(c>0)
     252:	9e 01       	movw	r18, r28
     254:	27 50       	subi	r18, 0x07	; 7
     256:	30 40       	sbci	r19, 0x00	; 0
     258:	06 c0       	rjmp	.+12     	; 0x266 <print_ulong+0x144>
	{
		print_char(numberArray[--c]+'0');
     25a:	80 81       	ld	r24, Z

}

void print_char( unsigned char data )
{
	while ( !( UCSRA & (1<<UDRE)) );
     25c:	5d 9b       	sbis	0x0b, 5	; 11
     25e:	fe cf       	rjmp	.-4      	; 0x25c <print_ulong+0x13a>
		n /= 10;
		c++;
	}
	while(c>0)
	{
		print_char(numberArray[--c]+'0');
     260:	80 5d       	subi	r24, 0xD0	; 208
}

void print_char( unsigned char data )
{
	while ( !( UCSRA & (1<<UDRE)) );
	UDR = data;
     262:	8c b9       	out	0x0c, r24	; 12
     264:	38 97       	sbiw	r30, 0x08	; 8
	{
		numberArray[c] = n % 10;
		n /= 10;
		c++;
	}
	while(c>0)
     266:	e2 17       	cp	r30, r18
     268:	f3 07       	cpc	r31, r19
     26a:	b9 f7       	brne	.-18     	; 0x25a <print_ulong+0x138>
	{
		print_char(numberArray[--c]+'0');
	}
}
     26c:	cc 5a       	subi	r28, 0xAC	; 172
     26e:	df 4f       	sbci	r29, 0xFF	; 255
     270:	0f b6       	in	r0, 0x3f	; 63
     272:	f8 94       	cli
     274:	de bf       	out	0x3e, r29	; 62
     276:	0f be       	out	0x3f, r0	; 63
     278:	cd bf       	out	0x3d, r28	; 61
     27a:	cf 91       	pop	r28
     27c:	df 91       	pop	r29
     27e:	1f 91       	pop	r17
     280:	0f 91       	pop	r16
     282:	ff 90       	pop	r15
     284:	ef 90       	pop	r14
     286:	df 90       	pop	r13
     288:	cf 90       	pop	r12
     28a:	bf 90       	pop	r11
     28c:	af 90       	pop	r10
     28e:	9f 90       	pop	r9
     290:	8f 90       	pop	r8
     292:	7f 90       	pop	r7
     294:	6f 90       	pop	r6
     296:	5f 90       	pop	r5
     298:	4f 90       	pop	r4
     29a:	3f 90       	pop	r3
     29c:	2f 90       	pop	r2
     29e:	08 95       	ret

000002a0 <print_string>:

void print_string(char* str)
{
     2a0:	fc 01       	movw	r30, r24
     2a2:	04 c0       	rjmp	.+8      	; 0x2ac <print_string+0xc>

}

void print_char( unsigned char data )
{
	while ( !( UCSRA & (1<<UDRE)) );
     2a4:	5d 9b       	sbis	0x0b, 5	; 11
     2a6:	fe cf       	rjmp	.-4      	; 0x2a4 <print_string+0x4>
	UDR = data;
     2a8:	8c b9       	out	0x0c, r24	; 12
     2aa:	31 96       	adiw	r30, 0x01	; 1
	}
}

void print_string(char* str)
{
	for(int i=0;str[i]!='\0';i++)
     2ac:	80 81       	ld	r24, Z
     2ae:	88 23       	and	r24, r24
     2b0:	c9 f7       	brne	.-14     	; 0x2a4 <print_string+0x4>
	{
		print_char(str[i]);
	}
}
     2b2:	08 95       	ret

000002b4 <__vector_13>:
#define BAUD 9600
#define BAUD_PRESCALE (((F_CPU)/(16UL * BAUD))-1)
volatile char info;

ISR(USART_RXC_vect)
{
     2b4:	1f 92       	push	r1
     2b6:	0f 92       	push	r0
     2b8:	0f b6       	in	r0, 0x3f	; 63
     2ba:	0f 92       	push	r0
     2bc:	11 24       	eor	r1, r1
     2be:	2f 93       	push	r18
     2c0:	3f 93       	push	r19
     2c2:	4f 93       	push	r20
     2c4:	5f 93       	push	r21
     2c6:	6f 93       	push	r22
     2c8:	7f 93       	push	r23
     2ca:	8f 93       	push	r24
     2cc:	9f 93       	push	r25
     2ce:	af 93       	push	r26
     2d0:	bf 93       	push	r27
     2d2:	ef 93       	push	r30
     2d4:	ff 93       	push	r31
info=UDR;
     2d6:	8c b1       	in	r24, 0x0c	; 12
     2d8:	80 93 b2 01 	sts	0x01B2, r24
		print_string("\n\r Character for performance:");
     2dc:	80 e6       	ldi	r24, 0x60	; 96
     2de:	90 e0       	ldi	r25, 0x00	; 0
     2e0:	0e 94 50 01 	call	0x2a0	; 0x2a0 <print_string>

}
     2e4:	ff 91       	pop	r31
     2e6:	ef 91       	pop	r30
     2e8:	bf 91       	pop	r27
     2ea:	af 91       	pop	r26
     2ec:	9f 91       	pop	r25
     2ee:	8f 91       	pop	r24
     2f0:	7f 91       	pop	r23
     2f2:	6f 91       	pop	r22
     2f4:	5f 91       	pop	r21
     2f6:	4f 91       	pop	r20
     2f8:	3f 91       	pop	r19
     2fa:	2f 91       	pop	r18
     2fc:	0f 90       	pop	r0
     2fe:	0f be       	out	0x3f, r0	; 63
     300:	0f 90       	pop	r0
     302:	1f 90       	pop	r1
     304:	18 95       	reti

00000306 <uart_init>:
	}
}

void uart_init()
{
	UBRRH = (BAUD_PRESCALE >> 8);
     306:	10 bc       	out	0x20, r1	; 32
	UBRRL = BAUD_PRESCALE;
     308:	87 e6       	ldi	r24, 0x67	; 103
     30a:	89 b9       	out	0x09, r24	; 9
	UCSRB |= (1<<TXEN)|(1<<RXEN)|(1<<RXCIE);
     30c:	8a b1       	in	r24, 0x0a	; 10
     30e:	88 69       	ori	r24, 0x98	; 152
     310:	8a b9       	out	0x0a, r24	; 10
	UCSRC |= (1<<URSEL)|(1<<UCSZ0)|(1<<UCSZ1);
     312:	80 b5       	in	r24, 0x20	; 32
     314:	86 68       	ori	r24, 0x86	; 134
     316:	80 bd       	out	0x20, r24	; 32
}
     318:	08 95       	ret

0000031a <__vector_4>:
#define F_CPU 16000000UL

volatile unsigned long long milli=0;

ISR(TIMER2_COMP_vect)
{
     31a:	1f 92       	push	r1
     31c:	0f 92       	push	r0
     31e:	0f b6       	in	r0, 0x3f	; 63
     320:	0f 92       	push	r0
     322:	11 24       	eor	r1, r1
     324:	1f 93       	push	r17
     326:	2f 93       	push	r18
     328:	3f 93       	push	r19
     32a:	4f 93       	push	r20
     32c:	5f 93       	push	r21
     32e:	6f 93       	push	r22
     330:	7f 93       	push	r23
     332:	8f 93       	push	r24
     334:	9f 93       	push	r25
     336:	af 93       	push	r26
     338:	bf 93       	push	r27
     33a:	ef 93       	push	r30
     33c:	ff 93       	push	r31

milli++;
     33e:	80 91 82 01 	lds	r24, 0x0182
     342:	20 91 83 01 	lds	r18, 0x0183
     346:	30 91 84 01 	lds	r19, 0x0184
     34a:	40 91 85 01 	lds	r20, 0x0185
     34e:	60 91 86 01 	lds	r22, 0x0186
     352:	e0 91 87 01 	lds	r30, 0x0187
     356:	a0 91 88 01 	lds	r26, 0x0188
     35a:	10 91 89 01 	lds	r17, 0x0189
     35e:	b8 2f       	mov	r27, r24
     360:	bf 5f       	subi	r27, 0xFF	; 255
     362:	91 e0       	ldi	r25, 0x01	; 1
     364:	b8 17       	cp	r27, r24
     366:	08 f0       	brcs	.+2      	; 0x36a <__vector_4+0x50>
     368:	90 e0       	ldi	r25, 0x00	; 0
     36a:	f9 2f       	mov	r31, r25
     36c:	f2 0f       	add	r31, r18
     36e:	81 e0       	ldi	r24, 0x01	; 1
     370:	f2 17       	cp	r31, r18
     372:	08 f0       	brcs	.+2      	; 0x376 <__vector_4+0x5c>
     374:	80 e0       	ldi	r24, 0x00	; 0
     376:	78 2f       	mov	r23, r24
     378:	73 0f       	add	r23, r19
     37a:	81 e0       	ldi	r24, 0x01	; 1
     37c:	73 17       	cp	r23, r19
     37e:	08 f0       	brcs	.+2      	; 0x382 <__vector_4+0x68>
     380:	80 e0       	ldi	r24, 0x00	; 0
     382:	58 2f       	mov	r21, r24
     384:	54 0f       	add	r21, r20
     386:	81 e0       	ldi	r24, 0x01	; 1
     388:	54 17       	cp	r21, r20
     38a:	08 f0       	brcs	.+2      	; 0x38e <__vector_4+0x74>
     38c:	80 e0       	ldi	r24, 0x00	; 0
     38e:	38 2f       	mov	r19, r24
     390:	36 0f       	add	r19, r22
     392:	81 e0       	ldi	r24, 0x01	; 1
     394:	36 17       	cp	r19, r22
     396:	08 f0       	brcs	.+2      	; 0x39a <__vector_4+0x80>
     398:	80 e0       	ldi	r24, 0x00	; 0
     39a:	28 2f       	mov	r18, r24
     39c:	2e 0f       	add	r18, r30
     39e:	81 e0       	ldi	r24, 0x01	; 1
     3a0:	2e 17       	cp	r18, r30
     3a2:	08 f0       	brcs	.+2      	; 0x3a6 <__vector_4+0x8c>
     3a4:	80 e0       	ldi	r24, 0x00	; 0
     3a6:	98 2f       	mov	r25, r24
     3a8:	9a 0f       	add	r25, r26
     3aa:	81 e0       	ldi	r24, 0x01	; 1
     3ac:	9a 17       	cp	r25, r26
     3ae:	08 f0       	brcs	.+2      	; 0x3b2 <__vector_4+0x98>
     3b0:	80 e0       	ldi	r24, 0x00	; 0
     3b2:	81 0f       	add	r24, r17
     3b4:	b0 93 82 01 	sts	0x0182, r27
     3b8:	f0 93 83 01 	sts	0x0183, r31
     3bc:	70 93 84 01 	sts	0x0184, r23
     3c0:	50 93 85 01 	sts	0x0185, r21
     3c4:	30 93 86 01 	sts	0x0186, r19
     3c8:	20 93 87 01 	sts	0x0187, r18
     3cc:	90 93 88 01 	sts	0x0188, r25
     3d0:	80 93 89 01 	sts	0x0189, r24
}
     3d4:	ff 91       	pop	r31
     3d6:	ef 91       	pop	r30
     3d8:	bf 91       	pop	r27
     3da:	af 91       	pop	r26
     3dc:	9f 91       	pop	r25
     3de:	8f 91       	pop	r24
     3e0:	7f 91       	pop	r23
     3e2:	6f 91       	pop	r22
     3e4:	5f 91       	pop	r21
     3e6:	4f 91       	pop	r20
     3e8:	3f 91       	pop	r19
     3ea:	2f 91       	pop	r18
     3ec:	1f 91       	pop	r17
     3ee:	0f 90       	pop	r0
     3f0:	0f be       	out	0x3f, r0	; 63
     3f2:	0f 90       	pop	r0
     3f4:	1f 90       	pop	r1
     3f6:	18 95       	reti

000003f8 <timer2_init>:
void timer2_init()
{
TCCR2|=(1<<WGM21)|(1<<CS22);
     3f8:	85 b5       	in	r24, 0x25	; 37
     3fa:	8c 60       	ori	r24, 0x0C	; 12
     3fc:	85 bd       	out	0x25, r24	; 37
OCR2=250;
     3fe:	8a ef       	ldi	r24, 0xFA	; 250
     400:	83 bd       	out	0x23, r24	; 35
sei();
     402:	78 94       	sei

TIMSK|=(1<<OCIE2);
     404:	89 b7       	in	r24, 0x39	; 57
     406:	80 68       	ori	r24, 0x80	; 128
     408:	89 bf       	out	0x39, r24	; 57
}
     40a:	08 95       	ret

0000040c <millis>:

int millis()
{
return(milli);
     40c:	20 91 82 01 	lds	r18, 0x0182
     410:	90 91 83 01 	lds	r25, 0x0183
     414:	80 91 84 01 	lds	r24, 0x0184
     418:	80 91 85 01 	lds	r24, 0x0185
     41c:	80 91 86 01 	lds	r24, 0x0186
     420:	80 91 87 01 	lds	r24, 0x0187
     424:	80 91 88 01 	lds	r24, 0x0188
     428:	80 91 89 01 	lds	r24, 0x0189
     42c:	82 2f       	mov	r24, r18
}
     42e:	08 95       	ret

00000430 <micros>:
int micros()
{
return (TCNT2*4);
     430:	24 b5       	in	r18, 0x24	; 36
     432:	30 e0       	ldi	r19, 0x00	; 0
     434:	22 0f       	add	r18, r18
     436:	33 1f       	adc	r19, r19
     438:	22 0f       	add	r18, r18
     43a:	33 1f       	adc	r19, r19
}
     43c:	c9 01       	movw	r24, r18
     43e:	08 95       	ret

00000440 <__vector_2>:
static volatile unsigned long long time2m=0;
static volatile unsigned long long time2u=0;
static volatile unsigned long long ultra_time=0;

ISR (INT1_vect)
{
     440:	1f 92       	push	r1
     442:	0f 92       	push	r0
     444:	0f b6       	in	r0, 0x3f	; 63
     446:	0f 92       	push	r0
     448:	11 24       	eor	r1, r1
     44a:	2f 92       	push	r2
     44c:	3f 92       	push	r3
     44e:	4f 92       	push	r4
     450:	5f 92       	push	r5
     452:	6f 92       	push	r6
     454:	7f 92       	push	r7
     456:	8f 92       	push	r8
     458:	9f 92       	push	r9
     45a:	af 92       	push	r10
     45c:	bf 92       	push	r11
     45e:	cf 92       	push	r12
     460:	df 92       	push	r13
     462:	ef 92       	push	r14
     464:	ff 92       	push	r15
     466:	0f 93       	push	r16
     468:	1f 93       	push	r17
     46a:	2f 93       	push	r18
     46c:	3f 93       	push	r19
     46e:	4f 93       	push	r20
     470:	5f 93       	push	r21
     472:	6f 93       	push	r22
     474:	7f 93       	push	r23
     476:	8f 93       	push	r24
     478:	9f 93       	push	r25
     47a:	af 93       	push	r26
     47c:	bf 93       	push	r27
     47e:	ef 93       	push	r30
     480:	ff 93       	push	r31
     482:	df 93       	push	r29
     484:	cf 93       	push	r28
     486:	cd b7       	in	r28, 0x3d	; 61
     488:	de b7       	in	r29, 0x3e	; 62
     48a:	67 97       	sbiw	r28, 0x17	; 23
     48c:	de bf       	out	0x3e, r29	; 62
     48e:	cd bf       	out	0x3d, r28	; 61
if ( i==0)
     490:	80 91 80 00 	lds	r24, 0x0080
     494:	90 91 81 00 	lds	r25, 0x0081
     498:	89 2b       	or	r24, r25
     49a:	09 f0       	breq	.+2      	; 0x49e <__vector_2+0x5e>
     49c:	45 c0       	rjmp	.+138    	; 0x528 <__vector_2+0xe8>
TIMSK|=(1<<OCIE2);
}

int millis()
{
return(milli);
     49e:	20 91 82 01 	lds	r18, 0x0182
     4a2:	30 91 83 01 	lds	r19, 0x0183
     4a6:	40 91 84 01 	lds	r20, 0x0184
     4aa:	50 91 85 01 	lds	r21, 0x0185
     4ae:	60 91 86 01 	lds	r22, 0x0186
     4b2:	70 91 87 01 	lds	r23, 0x0187
     4b6:	80 91 88 01 	lds	r24, 0x0188
     4ba:	90 91 89 01 	lds	r25, 0x0189
{
time1m=millis();
     4be:	f9 01       	movw	r30, r18
     4c0:	ff 0f       	add	r31, r31
     4c2:	ee 0b       	sbc	r30, r30
     4c4:	fe 2f       	mov	r31, r30
     4c6:	20 93 92 01 	sts	0x0192, r18
     4ca:	30 93 93 01 	sts	0x0193, r19
     4ce:	e0 93 94 01 	sts	0x0194, r30
     4d2:	e0 93 95 01 	sts	0x0195, r30
     4d6:	e0 93 96 01 	sts	0x0196, r30
     4da:	e0 93 97 01 	sts	0x0197, r30
     4de:	e0 93 98 01 	sts	0x0198, r30
     4e2:	e0 93 99 01 	sts	0x0199, r30
}
int micros()
{
return (TCNT2*4);
     4e6:	84 b5       	in	r24, 0x24	; 36
time1u=micros();
     4e8:	90 e0       	ldi	r25, 0x00	; 0
     4ea:	88 0f       	add	r24, r24
     4ec:	99 1f       	adc	r25, r25
     4ee:	88 0f       	add	r24, r24
     4f0:	99 1f       	adc	r25, r25
     4f2:	9c 01       	movw	r18, r24
     4f4:	33 0f       	add	r19, r19
     4f6:	22 0b       	sbc	r18, r18
     4f8:	32 2f       	mov	r19, r18
     4fa:	80 93 9a 01 	sts	0x019A, r24
     4fe:	90 93 9b 01 	sts	0x019B, r25
     502:	20 93 9c 01 	sts	0x019C, r18
     506:	20 93 9d 01 	sts	0x019D, r18
     50a:	20 93 9e 01 	sts	0x019E, r18
     50e:	20 93 9f 01 	sts	0x019F, r18
     512:	20 93 a0 01 	sts	0x01A0, r18
     516:	20 93 a1 01 	sts	0x01A1, r18
i=1;
     51a:	81 e0       	ldi	r24, 0x01	; 1
     51c:	90 e0       	ldi	r25, 0x00	; 0
     51e:	90 93 81 00 	sts	0x0081, r25
     522:	80 93 80 00 	sts	0x0080, r24
     526:	d1 c2       	rjmp	.+1442   	; 0xaca <__stack+0x26b>
}

else if ( i==1)
     528:	80 91 80 00 	lds	r24, 0x0080
     52c:	90 91 81 00 	lds	r25, 0x0081
     530:	01 97       	sbiw	r24, 0x01	; 1
     532:	09 f0       	breq	.+2      	; 0x536 <__vector_2+0xf6>
     534:	ca c2       	rjmp	.+1428   	; 0xaca <__stack+0x26b>
TIMSK|=(1<<OCIE2);
}

int millis()
{
return(milli);
     536:	20 91 82 01 	lds	r18, 0x0182
     53a:	30 91 83 01 	lds	r19, 0x0183
     53e:	40 91 84 01 	lds	r20, 0x0184
     542:	50 91 85 01 	lds	r21, 0x0185
     546:	60 91 86 01 	lds	r22, 0x0186
     54a:	70 91 87 01 	lds	r23, 0x0187
     54e:	80 91 88 01 	lds	r24, 0x0188
     552:	90 91 89 01 	lds	r25, 0x0189
{
time2m=millis();
     556:	f9 01       	movw	r30, r18
     558:	ff 0f       	add	r31, r31
     55a:	ee 0b       	sbc	r30, r30
     55c:	fe 2f       	mov	r31, r30
     55e:	20 93 a2 01 	sts	0x01A2, r18
     562:	30 93 a3 01 	sts	0x01A3, r19
     566:	e0 93 a4 01 	sts	0x01A4, r30
     56a:	e0 93 a5 01 	sts	0x01A5, r30
     56e:	e0 93 a6 01 	sts	0x01A6, r30
     572:	e0 93 a7 01 	sts	0x01A7, r30
     576:	e0 93 a8 01 	sts	0x01A8, r30
     57a:	e0 93 a9 01 	sts	0x01A9, r30
}
int micros()
{
return (TCNT2*4);
     57e:	84 b5       	in	r24, 0x24	; 36
time2u=micros();
     580:	90 e0       	ldi	r25, 0x00	; 0
     582:	88 0f       	add	r24, r24
     584:	99 1f       	adc	r25, r25
     586:	88 0f       	add	r24, r24
     588:	99 1f       	adc	r25, r25
     58a:	9c 01       	movw	r18, r24
     58c:	33 0f       	add	r19, r19
     58e:	22 0b       	sbc	r18, r18
     590:	32 2f       	mov	r19, r18
     592:	80 93 aa 01 	sts	0x01AA, r24
     596:	90 93 ab 01 	sts	0x01AB, r25
     59a:	20 93 ac 01 	sts	0x01AC, r18
     59e:	20 93 ad 01 	sts	0x01AD, r18
     5a2:	20 93 ae 01 	sts	0x01AE, r18
     5a6:	20 93 af 01 	sts	0x01AF, r18
     5aa:	20 93 b0 01 	sts	0x01B0, r18
     5ae:	20 93 b1 01 	sts	0x01B1, r18
ultra_time=(time2m-time1m)*1000+(time2u-time1u);
     5b2:	90 90 a2 01 	lds	r9, 0x01A2
     5b6:	80 90 a3 01 	lds	r8, 0x01A3
     5ba:	70 90 a4 01 	lds	r7, 0x01A4
     5be:	60 90 a5 01 	lds	r6, 0x01A5
     5c2:	50 90 a6 01 	lds	r5, 0x01A6
     5c6:	20 91 a7 01 	lds	r18, 0x01A7
     5ca:	2e 87       	std	Y+14, r18	; 0x0e
     5cc:	30 91 a8 01 	lds	r19, 0x01A8
     5d0:	3f 87       	std	Y+15, r19	; 0x0f
     5d2:	50 91 a9 01 	lds	r21, 0x01A9
     5d6:	58 8b       	std	Y+16, r21	; 0x10
     5d8:	20 90 92 01 	lds	r2, 0x0192
     5dc:	80 91 93 01 	lds	r24, 0x0193
     5e0:	8f 83       	std	Y+7, r24	; 0x07
     5e2:	90 91 94 01 	lds	r25, 0x0194
     5e6:	98 87       	std	Y+8, r25	; 0x08
     5e8:	a0 91 95 01 	lds	r26, 0x0195
     5ec:	a9 87       	std	Y+9, r26	; 0x09
     5ee:	b0 91 96 01 	lds	r27, 0x0196
     5f2:	ba 87       	std	Y+10, r27	; 0x0a
     5f4:	e0 91 97 01 	lds	r30, 0x0197
     5f8:	eb 87       	std	Y+11, r30	; 0x0b
     5fa:	f0 91 98 01 	lds	r31, 0x0198
     5fe:	fc 87       	std	Y+12, r31	; 0x0c
     600:	20 91 99 01 	lds	r18, 0x0199
     604:	2d 87       	std	Y+13, r18	; 0x0d
     606:	90 91 aa 01 	lds	r25, 0x01AA
     60a:	40 91 ab 01 	lds	r20, 0x01AB
     60e:	50 91 ac 01 	lds	r21, 0x01AC
     612:	70 91 ad 01 	lds	r23, 0x01AD
     616:	b0 90 ae 01 	lds	r11, 0x01AE
     61a:	a0 91 af 01 	lds	r26, 0x01AF
     61e:	10 91 b0 01 	lds	r17, 0x01B0
     622:	d0 90 b1 01 	lds	r13, 0x01B1
     626:	80 91 9a 01 	lds	r24, 0x019A
     62a:	20 91 9b 01 	lds	r18, 0x019B
     62e:	60 91 9c 01 	lds	r22, 0x019C
     632:	c0 90 9d 01 	lds	r12, 0x019D
     636:	b0 91 9e 01 	lds	r27, 0x019E
     63a:	00 91 9f 01 	lds	r16, 0x019F
     63e:	f0 90 a0 01 	lds	r15, 0x01A0
     642:	e0 90 a1 01 	lds	r14, 0x01A1
     646:	39 2f       	mov	r19, r25
     648:	38 1b       	sub	r19, r24
     64a:	39 8b       	std	Y+17, r19	; 0x11
     64c:	31 e0       	ldi	r19, 0x01	; 1
     64e:	89 89       	ldd	r24, Y+17	; 0x11
     650:	98 17       	cp	r25, r24
     652:	08 f0       	brcs	.+2      	; 0x656 <__vector_2+0x216>
     654:	30 e0       	ldi	r19, 0x00	; 0
     656:	84 2f       	mov	r24, r20
     658:	82 1b       	sub	r24, r18
     65a:	21 e0       	ldi	r18, 0x01	; 1
     65c:	48 17       	cp	r20, r24
     65e:	08 f0       	brcs	.+2      	; 0x662 <__vector_2+0x222>
     660:	20 e0       	ldi	r18, 0x00	; 0
     662:	98 2f       	mov	r25, r24
     664:	93 1b       	sub	r25, r19
     666:	99 83       	std	Y+1, r25	; 0x01
     668:	91 e0       	ldi	r25, 0x01	; 1
     66a:	e9 81       	ldd	r30, Y+1	; 0x01
     66c:	8e 17       	cp	r24, r30
     66e:	08 f0       	brcs	.+2      	; 0x672 <__vector_2+0x232>
     670:	90 e0       	ldi	r25, 0x00	; 0
     672:	29 2b       	or	r18, r25
     674:	85 2f       	mov	r24, r21
     676:	86 1b       	sub	r24, r22
     678:	31 e0       	ldi	r19, 0x01	; 1
     67a:	58 17       	cp	r21, r24
     67c:	08 f0       	brcs	.+2      	; 0x680 <__vector_2+0x240>
     67e:	30 e0       	ldi	r19, 0x00	; 0
     680:	f8 2f       	mov	r31, r24
     682:	f2 1b       	sub	r31, r18
     684:	fa 83       	std	Y+2, r31	; 0x02
     686:	91 e0       	ldi	r25, 0x01	; 1
     688:	8f 17       	cp	r24, r31
     68a:	08 f0       	brcs	.+2      	; 0x68e <__vector_2+0x24e>
     68c:	90 e0       	ldi	r25, 0x00	; 0
     68e:	39 2b       	or	r19, r25
     690:	87 2f       	mov	r24, r23
     692:	8c 19       	sub	r24, r12
     694:	21 e0       	ldi	r18, 0x01	; 1
     696:	78 17       	cp	r23, r24
     698:	08 f0       	brcs	.+2      	; 0x69c <__vector_2+0x25c>
     69a:	20 e0       	ldi	r18, 0x00	; 0
     69c:	58 2f       	mov	r21, r24
     69e:	53 1b       	sub	r21, r19
     6a0:	5b 83       	std	Y+3, r21	; 0x03
     6a2:	91 e0       	ldi	r25, 0x01	; 1
     6a4:	85 17       	cp	r24, r21
     6a6:	08 f0       	brcs	.+2      	; 0x6aa <__vector_2+0x26a>
     6a8:	90 e0       	ldi	r25, 0x00	; 0
     6aa:	29 2b       	or	r18, r25
     6ac:	8b 2d       	mov	r24, r11
     6ae:	8b 1b       	sub	r24, r27
     6b0:	31 e0       	ldi	r19, 0x01	; 1
     6b2:	b8 16       	cp	r11, r24
     6b4:	08 f0       	brcs	.+2      	; 0x6b8 <__vector_2+0x278>
     6b6:	30 e0       	ldi	r19, 0x00	; 0
     6b8:	98 2f       	mov	r25, r24
     6ba:	92 1b       	sub	r25, r18
     6bc:	9c 83       	std	Y+4, r25	; 0x04
     6be:	91 e0       	ldi	r25, 0x01	; 1
     6c0:	bc 81       	ldd	r27, Y+4	; 0x04
     6c2:	8b 17       	cp	r24, r27
     6c4:	08 f0       	brcs	.+2      	; 0x6c8 <__vector_2+0x288>
     6c6:	90 e0       	ldi	r25, 0x00	; 0
     6c8:	39 2b       	or	r19, r25
     6ca:	8a 2f       	mov	r24, r26
     6cc:	80 1b       	sub	r24, r16
     6ce:	21 e0       	ldi	r18, 0x01	; 1
     6d0:	a8 17       	cp	r26, r24
     6d2:	08 f0       	brcs	.+2      	; 0x6d6 <__vector_2+0x296>
     6d4:	20 e0       	ldi	r18, 0x00	; 0
     6d6:	e8 2f       	mov	r30, r24
     6d8:	e3 1b       	sub	r30, r19
     6da:	ed 83       	std	Y+5, r30	; 0x05
     6dc:	91 e0       	ldi	r25, 0x01	; 1
     6de:	8e 17       	cp	r24, r30
     6e0:	08 f0       	brcs	.+2      	; 0x6e4 <__vector_2+0x2a4>
     6e2:	90 e0       	ldi	r25, 0x00	; 0
     6e4:	29 2b       	or	r18, r25
     6e6:	81 2f       	mov	r24, r17
     6e8:	8f 19       	sub	r24, r15
     6ea:	91 e0       	ldi	r25, 0x01	; 1
     6ec:	18 17       	cp	r17, r24
     6ee:	08 f0       	brcs	.+2      	; 0x6f2 <__vector_2+0x2b2>
     6f0:	90 e0       	ldi	r25, 0x00	; 0
     6f2:	f8 2f       	mov	r31, r24
     6f4:	f2 1b       	sub	r31, r18
     6f6:	fe 83       	std	Y+6, r31	; 0x06
     6f8:	21 e0       	ldi	r18, 0x01	; 1
     6fa:	8f 17       	cp	r24, r31
     6fc:	08 f0       	brcs	.+2      	; 0x700 <__vector_2+0x2c0>
     6fe:	20 e0       	ldi	r18, 0x00	; 0
     700:	92 2b       	or	r25, r18
     702:	de 18       	sub	r13, r14
     704:	2d 2d       	mov	r18, r13
     706:	29 1b       	sub	r18, r25
     708:	2a 8b       	std	Y+18, r18	; 0x12
     70a:	39 2c       	mov	r3, r9
     70c:	32 18       	sub	r3, r2
     70e:	81 e0       	ldi	r24, 0x01	; 1
     710:	93 14       	cp	r9, r3
     712:	08 f0       	brcs	.+2      	; 0x716 <__vector_2+0x2d6>
     714:	80 e0       	ldi	r24, 0x00	; 0
     716:	a8 2c       	mov	r10, r8
     718:	3f 81       	ldd	r19, Y+7	; 0x07
     71a:	a3 1a       	sub	r10, r19
     71c:	91 e0       	ldi	r25, 0x01	; 1
     71e:	8a 14       	cp	r8, r10
     720:	08 f0       	brcs	.+2      	; 0x724 <__vector_2+0x2e4>
     722:	90 e0       	ldi	r25, 0x00	; 0
     724:	2a 2d       	mov	r18, r10
     726:	28 1b       	sub	r18, r24
     728:	81 e0       	ldi	r24, 0x01	; 1
     72a:	a2 16       	cp	r10, r18
     72c:	08 f0       	brcs	.+2      	; 0x730 <__vector_2+0x2f0>
     72e:	80 e0       	ldi	r24, 0x00	; 0
     730:	98 2b       	or	r25, r24
     732:	a2 2e       	mov	r10, r18
     734:	b7 2c       	mov	r11, r7
     736:	58 85       	ldd	r21, Y+8	; 0x08
     738:	b5 1a       	sub	r11, r21
     73a:	21 e0       	ldi	r18, 0x01	; 1
     73c:	7b 14       	cp	r7, r11
     73e:	08 f0       	brcs	.+2      	; 0x742 <__vector_2+0x302>
     740:	20 e0       	ldi	r18, 0x00	; 0
     742:	8b 2d       	mov	r24, r11
     744:	89 1b       	sub	r24, r25
     746:	98 2f       	mov	r25, r24
     748:	81 e0       	ldi	r24, 0x01	; 1
     74a:	b9 16       	cp	r11, r25
     74c:	08 f0       	brcs	.+2      	; 0x750 <__vector_2+0x310>
     74e:	80 e0       	ldi	r24, 0x00	; 0
     750:	28 2b       	or	r18, r24
     752:	b9 2e       	mov	r11, r25
     754:	c6 2c       	mov	r12, r6
     756:	99 85       	ldd	r25, Y+9	; 0x09
     758:	c9 1a       	sub	r12, r25
     75a:	91 e0       	ldi	r25, 0x01	; 1
     75c:	6c 14       	cp	r6, r12
     75e:	08 f0       	brcs	.+2      	; 0x762 <__vector_2+0x322>
     760:	90 e0       	ldi	r25, 0x00	; 0
     762:	ac 2d       	mov	r26, r12
     764:	a2 1b       	sub	r26, r18
     766:	2a 2f       	mov	r18, r26
     768:	81 e0       	ldi	r24, 0x01	; 1
     76a:	ca 16       	cp	r12, r26
     76c:	08 f0       	brcs	.+2      	; 0x770 <__vector_2+0x330>
     76e:	80 e0       	ldi	r24, 0x00	; 0
     770:	98 2b       	or	r25, r24
     772:	c2 2e       	mov	r12, r18
     774:	d5 2c       	mov	r13, r5
     776:	ba 85       	ldd	r27, Y+10	; 0x0a
     778:	db 1a       	sub	r13, r27
     77a:	21 e0       	ldi	r18, 0x01	; 1
     77c:	5d 14       	cp	r5, r13
     77e:	08 f0       	brcs	.+2      	; 0x782 <__vector_2+0x342>
     780:	20 e0       	ldi	r18, 0x00	; 0
     782:	ed 2d       	mov	r30, r13
     784:	e9 1b       	sub	r30, r25
     786:	9e 2f       	mov	r25, r30
     788:	81 e0       	ldi	r24, 0x01	; 1
     78a:	de 16       	cp	r13, r30
     78c:	08 f0       	brcs	.+2      	; 0x790 <__vector_2+0x350>
     78e:	80 e0       	ldi	r24, 0x00	; 0
     790:	28 2b       	or	r18, r24
     792:	d9 2e       	mov	r13, r25
     794:	ee 84       	ldd	r14, Y+14	; 0x0e
     796:	fb 85       	ldd	r31, Y+11	; 0x0b
     798:	ef 1a       	sub	r14, r31
     79a:	91 e0       	ldi	r25, 0x01	; 1
     79c:	3e 85       	ldd	r19, Y+14	; 0x0e
     79e:	3e 15       	cp	r19, r14
     7a0:	08 f0       	brcs	.+2      	; 0x7a4 <__vector_2+0x364>
     7a2:	90 e0       	ldi	r25, 0x00	; 0
     7a4:	5e 2d       	mov	r21, r14
     7a6:	52 1b       	sub	r21, r18
     7a8:	25 2f       	mov	r18, r21
     7aa:	81 e0       	ldi	r24, 0x01	; 1
     7ac:	e5 16       	cp	r14, r21
     7ae:	08 f0       	brcs	.+2      	; 0x7b2 <__vector_2+0x372>
     7b0:	80 e0       	ldi	r24, 0x00	; 0
     7b2:	98 2b       	or	r25, r24
     7b4:	e2 2e       	mov	r14, r18
     7b6:	ff 84       	ldd	r15, Y+15	; 0x0f
     7b8:	8c 85       	ldd	r24, Y+12	; 0x0c
     7ba:	f8 1a       	sub	r15, r24
     7bc:	81 e0       	ldi	r24, 0x01	; 1
     7be:	af 85       	ldd	r26, Y+15	; 0x0f
     7c0:	af 15       	cp	r26, r15
     7c2:	08 f0       	brcs	.+2      	; 0x7c6 <__vector_2+0x386>
     7c4:	80 e0       	ldi	r24, 0x00	; 0
     7c6:	2f 2d       	mov	r18, r15
     7c8:	29 1b       	sub	r18, r25
     7ca:	91 e0       	ldi	r25, 0x01	; 1
     7cc:	f2 16       	cp	r15, r18
     7ce:	08 f0       	brcs	.+2      	; 0x7d2 <__vector_2+0x392>
     7d0:	90 e0       	ldi	r25, 0x00	; 0
     7d2:	89 2b       	or	r24, r25
     7d4:	f2 2e       	mov	r15, r18
     7d6:	48 88       	ldd	r4, Y+16	; 0x10
     7d8:	bd 85       	ldd	r27, Y+13	; 0x0d
     7da:	4b 1a       	sub	r4, r27
     7dc:	94 2d       	mov	r25, r4
     7de:	98 1b       	sub	r25, r24
     7e0:	49 2e       	mov	r4, r25
     7e2:	23 2d       	mov	r18, r3
     7e4:	3a 2d       	mov	r19, r10
     7e6:	4b 2d       	mov	r20, r11
     7e8:	5c 2d       	mov	r21, r12
     7ea:	6d 2d       	mov	r22, r13
     7ec:	7e 2d       	mov	r23, r14
     7ee:	8f 2d       	mov	r24, r15
     7f0:	02 e0       	ldi	r16, 0x02	; 2
     7f2:	0e 94 66 07 	call	0xecc	; 0xecc <__ashldi3>
     7f6:	12 2f       	mov	r17, r18
     7f8:	93 2e       	mov	r9, r19
     7fa:	84 2e       	mov	r8, r20
     7fc:	65 2e       	mov	r6, r21
     7fe:	26 2e       	mov	r2, r22
     800:	7b 8b       	std	Y+19, r23	; 0x13
     802:	8c 8b       	std	Y+20, r24	; 0x14
     804:	9d 8b       	std	Y+21, r25	; 0x15
     806:	05 e0       	ldi	r16, 0x05	; 5
     808:	0e 94 66 07 	call	0xecc	; 0xecc <__ashldi3>
     80c:	a3 2f       	mov	r26, r19
     80e:	b4 2f       	mov	r27, r20
     810:	05 2f       	mov	r16, r21
     812:	76 2e       	mov	r7, r22
     814:	57 2e       	mov	r5, r23
     816:	8e 8b       	std	Y+22, r24	; 0x16
     818:	9f 8b       	std	Y+23, r25	; 0x17
     81a:	92 2f       	mov	r25, r18
     81c:	91 1b       	sub	r25, r17
     81e:	f1 e0       	ldi	r31, 0x01	; 1
     820:	29 17       	cp	r18, r25
     822:	08 f0       	brcs	.+2      	; 0x826 <__vector_2+0x3e6>
     824:	f0 e0       	ldi	r31, 0x00	; 0
     826:	3a 2f       	mov	r19, r26
     828:	39 19       	sub	r19, r9
     82a:	e1 e0       	ldi	r30, 0x01	; 1
     82c:	a3 17       	cp	r26, r19
     82e:	08 f0       	brcs	.+2      	; 0x832 <__vector_2+0x3f2>
     830:	e0 e0       	ldi	r30, 0x00	; 0
     832:	23 2f       	mov	r18, r19
     834:	2f 1b       	sub	r18, r31
     836:	f2 2f       	mov	r31, r18
     838:	21 e0       	ldi	r18, 0x01	; 1
     83a:	3f 17       	cp	r19, r31
     83c:	08 f0       	brcs	.+2      	; 0x840 <__vector_2+0x400>
     83e:	20 e0       	ldi	r18, 0x00	; 0
     840:	e2 2b       	or	r30, r18
     842:	4b 2f       	mov	r20, r27
     844:	48 19       	sub	r20, r8
     846:	31 e0       	ldi	r19, 0x01	; 1
     848:	b4 17       	cp	r27, r20
     84a:	08 f0       	brcs	.+2      	; 0x84e <__vector_2+0x40e>
     84c:	30 e0       	ldi	r19, 0x00	; 0
     84e:	54 2f       	mov	r21, r20
     850:	5e 1b       	sub	r21, r30
     852:	e5 2f       	mov	r30, r21
     854:	21 e0       	ldi	r18, 0x01	; 1
     856:	45 17       	cp	r20, r21
     858:	08 f0       	brcs	.+2      	; 0x85c <__vector_2+0x41c>
     85a:	20 e0       	ldi	r18, 0x00	; 0
     85c:	32 2b       	or	r19, r18
     85e:	50 2f       	mov	r21, r16
     860:	56 19       	sub	r21, r6
     862:	41 e0       	ldi	r20, 0x01	; 1
     864:	05 17       	cp	r16, r21
     866:	08 f0       	brcs	.+2      	; 0x86a <__stack+0xb>
     868:	40 e0       	ldi	r20, 0x00	; 0
     86a:	85 2e       	mov	r8, r21
     86c:	83 1a       	sub	r8, r19
     86e:	21 e0       	ldi	r18, 0x01	; 1
     870:	58 15       	cp	r21, r8
     872:	08 f0       	brcs	.+2      	; 0x876 <__stack+0x17>
     874:	20 e0       	ldi	r18, 0x00	; 0
     876:	42 2b       	or	r20, r18
     878:	67 2d       	mov	r22, r7
     87a:	62 19       	sub	r22, r2
     87c:	31 e0       	ldi	r19, 0x01	; 1
     87e:	76 16       	cp	r7, r22
     880:	08 f0       	brcs	.+2      	; 0x884 <__stack+0x25>
     882:	30 e0       	ldi	r19, 0x00	; 0
     884:	16 2f       	mov	r17, r22
     886:	14 1b       	sub	r17, r20
     888:	21 e0       	ldi	r18, 0x01	; 1
     88a:	61 17       	cp	r22, r17
     88c:	08 f0       	brcs	.+2      	; 0x890 <__stack+0x31>
     88e:	20 e0       	ldi	r18, 0x00	; 0
     890:	32 2b       	or	r19, r18
     892:	75 2d       	mov	r23, r5
     894:	8b 89       	ldd	r24, Y+19	; 0x13
     896:	78 1b       	sub	r23, r24
     898:	41 e0       	ldi	r20, 0x01	; 1
     89a:	57 16       	cp	r5, r23
     89c:	08 f0       	brcs	.+2      	; 0x8a0 <__stack+0x41>
     89e:	40 e0       	ldi	r20, 0x00	; 0
     8a0:	07 2f       	mov	r16, r23
     8a2:	03 1b       	sub	r16, r19
     8a4:	21 e0       	ldi	r18, 0x01	; 1
     8a6:	70 17       	cp	r23, r16
     8a8:	08 f0       	brcs	.+2      	; 0x8ac <__stack+0x4d>
     8aa:	20 e0       	ldi	r18, 0x00	; 0
     8ac:	42 2b       	or	r20, r18
     8ae:	8e 89       	ldd	r24, Y+22	; 0x16
     8b0:	ac 89       	ldd	r26, Y+20	; 0x14
     8b2:	8a 1b       	sub	r24, r26
     8b4:	21 e0       	ldi	r18, 0x01	; 1
     8b6:	be 89       	ldd	r27, Y+22	; 0x16
     8b8:	b8 17       	cp	r27, r24
     8ba:	08 f0       	brcs	.+2      	; 0x8be <__stack+0x5f>
     8bc:	20 e0       	ldi	r18, 0x00	; 0
     8be:	98 2e       	mov	r9, r24
     8c0:	94 1a       	sub	r9, r20
     8c2:	31 e0       	ldi	r19, 0x01	; 1
     8c4:	89 15       	cp	r24, r9
     8c6:	08 f0       	brcs	.+2      	; 0x8ca <__stack+0x6b>
     8c8:	30 e0       	ldi	r19, 0x00	; 0
     8ca:	23 2b       	or	r18, r19
     8cc:	7f 88       	ldd	r7, Y+23	; 0x17
     8ce:	3d 89       	ldd	r19, Y+21	; 0x15
     8d0:	73 1a       	sub	r7, r19
     8d2:	72 1a       	sub	r7, r18
     8d4:	29 2f       	mov	r18, r25
     8d6:	23 0d       	add	r18, r3
     8d8:	81 e0       	ldi	r24, 0x01	; 1
     8da:	29 17       	cp	r18, r25
     8dc:	08 f0       	brcs	.+2      	; 0x8e0 <__stack+0x81>
     8de:	80 e0       	ldi	r24, 0x00	; 0
     8e0:	3f 2f       	mov	r19, r31
     8e2:	3a 0d       	add	r19, r10
     8e4:	61 e0       	ldi	r22, 0x01	; 1
     8e6:	3f 17       	cp	r19, r31
     8e8:	08 f0       	brcs	.+2      	; 0x8ec <__stack+0x8d>
     8ea:	60 e0       	ldi	r22, 0x00	; 0
     8ec:	a8 2e       	mov	r10, r24
     8ee:	a3 0e       	add	r10, r19
     8f0:	81 e0       	ldi	r24, 0x01	; 1
     8f2:	a3 16       	cp	r10, r19
     8f4:	08 f0       	brcs	.+2      	; 0x8f8 <__stack+0x99>
     8f6:	80 e0       	ldi	r24, 0x00	; 0
     8f8:	68 2b       	or	r22, r24
     8fa:	4e 2f       	mov	r20, r30
     8fc:	4b 0d       	add	r20, r11
     8fe:	71 e0       	ldi	r23, 0x01	; 1
     900:	4e 17       	cp	r20, r30
     902:	08 f0       	brcs	.+2      	; 0x906 <__stack+0xa7>
     904:	70 e0       	ldi	r23, 0x00	; 0
     906:	b6 2e       	mov	r11, r22
     908:	b4 0e       	add	r11, r20
     90a:	81 e0       	ldi	r24, 0x01	; 1
     90c:	b4 16       	cp	r11, r20
     90e:	08 f0       	brcs	.+2      	; 0x912 <__stack+0xb3>
     910:	80 e0       	ldi	r24, 0x00	; 0
     912:	78 2b       	or	r23, r24
     914:	58 2d       	mov	r21, r8
     916:	5c 0d       	add	r21, r12
     918:	e1 e0       	ldi	r30, 0x01	; 1
     91a:	58 15       	cp	r21, r8
     91c:	08 f0       	brcs	.+2      	; 0x920 <__stack+0xc1>
     91e:	e0 e0       	ldi	r30, 0x00	; 0
     920:	c7 2e       	mov	r12, r23
     922:	c5 0e       	add	r12, r21
     924:	81 e0       	ldi	r24, 0x01	; 1
     926:	c5 16       	cp	r12, r21
     928:	08 f0       	brcs	.+2      	; 0x92c <__stack+0xcd>
     92a:	80 e0       	ldi	r24, 0x00	; 0
     92c:	e8 2b       	or	r30, r24
     92e:	61 2f       	mov	r22, r17
     930:	6d 0d       	add	r22, r13
     932:	f1 e0       	ldi	r31, 0x01	; 1
     934:	61 17       	cp	r22, r17
     936:	08 f0       	brcs	.+2      	; 0x93a <__stack+0xdb>
     938:	f0 e0       	ldi	r31, 0x00	; 0
     93a:	de 2e       	mov	r13, r30
     93c:	d6 0e       	add	r13, r22
     93e:	81 e0       	ldi	r24, 0x01	; 1
     940:	d6 16       	cp	r13, r22
     942:	08 f0       	brcs	.+2      	; 0x946 <__stack+0xe7>
     944:	80 e0       	ldi	r24, 0x00	; 0
     946:	f8 2b       	or	r31, r24
     948:	70 2f       	mov	r23, r16
     94a:	7e 0d       	add	r23, r14
     94c:	a1 e0       	ldi	r26, 0x01	; 1
     94e:	70 17       	cp	r23, r16
     950:	08 f0       	brcs	.+2      	; 0x954 <__stack+0xf5>
     952:	a0 e0       	ldi	r26, 0x00	; 0
     954:	1f 2f       	mov	r17, r31
     956:	17 0f       	add	r17, r23
     958:	e1 e0       	ldi	r30, 0x01	; 1
     95a:	17 17       	cp	r17, r23
     95c:	08 f0       	brcs	.+2      	; 0x960 <__stack+0x101>
     95e:	e0 e0       	ldi	r30, 0x00	; 0
     960:	ae 2b       	or	r26, r30
     962:	89 2d       	mov	r24, r9
     964:	8f 0d       	add	r24, r15
     966:	91 e0       	ldi	r25, 0x01	; 1
     968:	89 15       	cp	r24, r9
     96a:	08 f0       	brcs	.+2      	; 0x96e <__stack+0x10f>
     96c:	90 e0       	ldi	r25, 0x00	; 0
     96e:	fa 2f       	mov	r31, r26
     970:	f8 0f       	add	r31, r24
     972:	e1 e0       	ldi	r30, 0x01	; 1
     974:	f8 17       	cp	r31, r24
     976:	08 f0       	brcs	.+2      	; 0x97a <__stack+0x11b>
     978:	e0 e0       	ldi	r30, 0x00	; 0
     97a:	9e 2b       	or	r25, r30
     97c:	74 0c       	add	r7, r4
     97e:	3a 2d       	mov	r19, r10
     980:	4b 2d       	mov	r20, r11
     982:	5c 2d       	mov	r21, r12
     984:	6d 2d       	mov	r22, r13
     986:	71 2f       	mov	r23, r17
     988:	8f 2f       	mov	r24, r31
     98a:	97 0d       	add	r25, r7
     98c:	03 e0       	ldi	r16, 0x03	; 3
     98e:	0e 94 66 07 	call	0xecc	; 0xecc <__ashldi3>
     992:	a9 89       	ldd	r26, Y+17	; 0x11
     994:	2a 0f       	add	r18, r26
     996:	e1 e0       	ldi	r30, 0x01	; 1
     998:	2a 17       	cp	r18, r26
     99a:	08 f0       	brcs	.+2      	; 0x99e <__stack+0x13f>
     99c:	e0 e0       	ldi	r30, 0x00	; 0
     99e:	b9 81       	ldd	r27, Y+1	; 0x01
     9a0:	3b 0f       	add	r19, r27
     9a2:	f1 e0       	ldi	r31, 0x01	; 1
     9a4:	3b 17       	cp	r19, r27
     9a6:	08 f0       	brcs	.+2      	; 0x9aa <__stack+0x14b>
     9a8:	f0 e0       	ldi	r31, 0x00	; 0
     9aa:	1e 2f       	mov	r17, r30
     9ac:	13 0f       	add	r17, r19
     9ae:	e1 e0       	ldi	r30, 0x01	; 1
     9b0:	13 17       	cp	r17, r19
     9b2:	08 f0       	brcs	.+2      	; 0x9b6 <__stack+0x157>
     9b4:	e0 e0       	ldi	r30, 0x00	; 0
     9b6:	fe 2b       	or	r31, r30
     9b8:	ea 81       	ldd	r30, Y+2	; 0x02
     9ba:	4e 0f       	add	r20, r30
     9bc:	e1 e0       	ldi	r30, 0x01	; 1
     9be:	3a 81       	ldd	r19, Y+2	; 0x02
     9c0:	43 17       	cp	r20, r19
     9c2:	08 f0       	brcs	.+2      	; 0x9c6 <__stack+0x167>
     9c4:	e0 e0       	ldi	r30, 0x00	; 0
     9c6:	0f 2f       	mov	r16, r31
     9c8:	04 0f       	add	r16, r20
     9ca:	31 e0       	ldi	r19, 0x01	; 1
     9cc:	04 17       	cp	r16, r20
     9ce:	08 f0       	brcs	.+2      	; 0x9d2 <__stack+0x173>
     9d0:	30 e0       	ldi	r19, 0x00	; 0
     9d2:	e3 2b       	or	r30, r19
     9d4:	ab 81       	ldd	r26, Y+3	; 0x03
     9d6:	5a 0f       	add	r21, r26
     9d8:	41 e0       	ldi	r20, 0x01	; 1
     9da:	5a 17       	cp	r21, r26
     9dc:	08 f0       	brcs	.+2      	; 0x9e0 <__stack+0x181>
     9de:	40 e0       	ldi	r20, 0x00	; 0
     9e0:	fe 2f       	mov	r31, r30
     9e2:	f5 0f       	add	r31, r21
     9e4:	31 e0       	ldi	r19, 0x01	; 1
     9e6:	f5 17       	cp	r31, r21
     9e8:	08 f0       	brcs	.+2      	; 0x9ec <__stack+0x18d>
     9ea:	30 e0       	ldi	r19, 0x00	; 0
     9ec:	43 2b       	or	r20, r19
     9ee:	bc 81       	ldd	r27, Y+4	; 0x04
     9f0:	6b 0f       	add	r22, r27
     9f2:	51 e0       	ldi	r21, 0x01	; 1
     9f4:	6b 17       	cp	r22, r27
     9f6:	08 f0       	brcs	.+2      	; 0x9fa <__stack+0x19b>
     9f8:	50 e0       	ldi	r21, 0x00	; 0
     9fa:	e4 2f       	mov	r30, r20
     9fc:	e6 0f       	add	r30, r22
     9fe:	31 e0       	ldi	r19, 0x01	; 1
     a00:	e6 17       	cp	r30, r22
     a02:	08 f0       	brcs	.+2      	; 0xa06 <__stack+0x1a7>
     a04:	30 e0       	ldi	r19, 0x00	; 0
     a06:	53 2b       	or	r21, r19
     a08:	3d 81       	ldd	r19, Y+5	; 0x05
     a0a:	73 0f       	add	r23, r19
     a0c:	41 e0       	ldi	r20, 0x01	; 1
     a0e:	73 17       	cp	r23, r19
     a10:	08 f0       	brcs	.+2      	; 0xa14 <__stack+0x1b5>
     a12:	40 e0       	ldi	r20, 0x00	; 0
     a14:	65 2f       	mov	r22, r21
     a16:	67 0f       	add	r22, r23
     a18:	31 e0       	ldi	r19, 0x01	; 1
     a1a:	67 17       	cp	r22, r23
     a1c:	08 f0       	brcs	.+2      	; 0xa20 <__stack+0x1c1>
     a1e:	30 e0       	ldi	r19, 0x00	; 0
     a20:	43 2b       	or	r20, r19
     a22:	5e 81       	ldd	r21, Y+6	; 0x06
     a24:	85 0f       	add	r24, r21
     a26:	31 e0       	ldi	r19, 0x01	; 1
     a28:	85 17       	cp	r24, r21
     a2a:	08 f0       	brcs	.+2      	; 0xa2e <__stack+0x1cf>
     a2c:	30 e0       	ldi	r19, 0x00	; 0
     a2e:	54 2f       	mov	r21, r20
     a30:	58 0f       	add	r21, r24
     a32:	41 e0       	ldi	r20, 0x01	; 1
     a34:	58 17       	cp	r21, r24
     a36:	08 f0       	brcs	.+2      	; 0xa3a <__stack+0x1db>
     a38:	40 e0       	ldi	r20, 0x00	; 0
     a3a:	34 2b       	or	r19, r20
     a3c:	8a 89       	ldd	r24, Y+18	; 0x12
     a3e:	89 0f       	add	r24, r25
     a40:	38 0f       	add	r19, r24
     a42:	20 93 8a 01 	sts	0x018A, r18
     a46:	10 93 8b 01 	sts	0x018B, r17
     a4a:	00 93 8c 01 	sts	0x018C, r16
     a4e:	f0 93 8d 01 	sts	0x018D, r31
     a52:	e0 93 8e 01 	sts	0x018E, r30
     a56:	60 93 8f 01 	sts	0x018F, r22
     a5a:	50 93 90 01 	sts	0x0190, r21
     a5e:	30 93 91 01 	sts	0x0191, r19
i=0;
     a62:	10 92 81 00 	sts	0x0081, r1
     a66:	10 92 80 00 	sts	0x0080, r1
time1m=time2m=0;
     a6a:	10 92 a2 01 	sts	0x01A2, r1
     a6e:	10 92 a3 01 	sts	0x01A3, r1
     a72:	10 92 a4 01 	sts	0x01A4, r1
     a76:	10 92 a5 01 	sts	0x01A5, r1
     a7a:	10 92 a6 01 	sts	0x01A6, r1
     a7e:	10 92 a7 01 	sts	0x01A7, r1
     a82:	10 92 a8 01 	sts	0x01A8, r1
     a86:	10 92 a9 01 	sts	0x01A9, r1
     a8a:	80 91 a2 01 	lds	r24, 0x01A2
     a8e:	90 91 a3 01 	lds	r25, 0x01A3
     a92:	20 91 a4 01 	lds	r18, 0x01A4
     a96:	30 91 a5 01 	lds	r19, 0x01A5
     a9a:	40 91 a6 01 	lds	r20, 0x01A6
     a9e:	50 91 a7 01 	lds	r21, 0x01A7
     aa2:	60 91 a8 01 	lds	r22, 0x01A8
     aa6:	70 91 a9 01 	lds	r23, 0x01A9
     aaa:	80 93 92 01 	sts	0x0192, r24
     aae:	90 93 93 01 	sts	0x0193, r25
     ab2:	20 93 94 01 	sts	0x0194, r18
     ab6:	30 93 95 01 	sts	0x0195, r19
     aba:	40 93 96 01 	sts	0x0196, r20
     abe:	50 93 97 01 	sts	0x0197, r21
     ac2:	60 93 98 01 	sts	0x0198, r22
     ac6:	70 93 99 01 	sts	0x0199, r23
}
}
     aca:	67 96       	adiw	r28, 0x17	; 23
     acc:	de bf       	out	0x3e, r29	; 62
     ace:	cd bf       	out	0x3d, r28	; 61
     ad0:	cf 91       	pop	r28
     ad2:	df 91       	pop	r29
     ad4:	ff 91       	pop	r31
     ad6:	ef 91       	pop	r30
     ad8:	bf 91       	pop	r27
     ada:	af 91       	pop	r26
     adc:	9f 91       	pop	r25
     ade:	8f 91       	pop	r24
     ae0:	7f 91       	pop	r23
     ae2:	6f 91       	pop	r22
     ae4:	5f 91       	pop	r21
     ae6:	4f 91       	pop	r20
     ae8:	3f 91       	pop	r19
     aea:	2f 91       	pop	r18
     aec:	1f 91       	pop	r17
     aee:	0f 91       	pop	r16
     af0:	ff 90       	pop	r15
     af2:	ef 90       	pop	r14
     af4:	df 90       	pop	r13
     af6:	cf 90       	pop	r12
     af8:	bf 90       	pop	r11
     afa:	af 90       	pop	r10
     afc:	9f 90       	pop	r9
     afe:	8f 90       	pop	r8
     b00:	7f 90       	pop	r7
     b02:	6f 90       	pop	r6
     b04:	5f 90       	pop	r5
     b06:	4f 90       	pop	r4
     b08:	3f 90       	pop	r3
     b0a:	2f 90       	pop	r2
     b0c:	0f 90       	pop	r0
     b0e:	0f be       	out	0x3f, r0	; 63
     b10:	0f 90       	pop	r0
     b12:	1f 90       	pop	r1
     b14:	18 95       	reti

00000b16 <ultrasonic_init>:



void ultrasonic_init()
{
timer2_init();
     b16:	0e 94 fc 01 	call	0x3f8	; 0x3f8 <timer2_init>
sei();
     b1a:	78 94       	sei
GICR |=(1<<INT1);
     b1c:	8b b7       	in	r24, 0x3b	; 59
     b1e:	80 68       	ori	r24, 0x80	; 128
     b20:	8b bf       	out	0x3b, r24	; 59
MCUCR|=(1<<ISC10);
     b22:	85 b7       	in	r24, 0x35	; 53
     b24:	84 60       	ori	r24, 0x04	; 4
     b26:	85 bf       	out	0x35, r24	; 53
trigger_DDR |=(1<<trigger_pin);
     b28:	bb 9a       	sbi	0x17, 3	; 23
trigger_PORT|=(1<<trigger_pin);
     b2a:	c3 9a       	sbi	0x18, 3	; 24
}

void ultrasonic_trigger()
{

trigger_PORT&=~(1<<trigger_pin);
     b2c:	c3 98       	cbi	0x18, 3	; 24
		trigger_PORT|= (1<<trigger_pin);
     b2e:	c3 9a       	sbi	0x18, 3	; 24
GICR |=(1<<INT1);
MCUCR|=(1<<ISC10);
trigger_DDR |=(1<<trigger_pin);
trigger_PORT|=(1<<trigger_pin);
ultrasonic_trigger();
}
     b30:	08 95       	ret

00000b32 <ultrasonic_trigger>:

void ultrasonic_trigger()
{

trigger_PORT&=~(1<<trigger_pin);
     b32:	c3 98       	cbi	0x18, 3	; 24
		trigger_PORT|= (1<<trigger_pin);
     b34:	c3 9a       	sbi	0x18, 3	; 24
		
}
     b36:	08 95       	ret

00000b38 <ultrasonic_loop>:
TIMSK|=(1<<OCIE2);
}

int millis()
{
return(milli);
     b38:	20 91 82 01 	lds	r18, 0x0182
     b3c:	30 91 83 01 	lds	r19, 0x0183
     b40:	80 91 84 01 	lds	r24, 0x0184
     b44:	80 91 85 01 	lds	r24, 0x0185
     b48:	80 91 86 01 	lds	r24, 0x0186
     b4c:	80 91 87 01 	lds	r24, 0x0187
     b50:	80 91 88 01 	lds	r24, 0x0188
     b54:	80 91 89 01 	lds	r24, 0x0189

ultrasonic_loop()
{
if (!(millis()%trig_time))
     b58:	c9 01       	movw	r24, r18
     b5a:	66 e4       	ldi	r22, 0x46	; 70
     b5c:	70 e0       	ldi	r23, 0x00	; 0
     b5e:	0e 94 4f 16 	call	0x2c9e	; 0x2c9e <__divmodhi4>
     b62:	89 2b       	or	r24, r25
     b64:	11 f4       	brne	.+4      	; 0xb6a <ultrasonic_loop+0x32>
}

void ultrasonic_trigger()
{

trigger_PORT&=~(1<<trigger_pin);
     b66:	c3 98       	cbi	0x18, 3	; 24
		trigger_PORT|= (1<<trigger_pin);
     b68:	c3 9a       	sbi	0x18, 3	; 24
     b6a:	08 95       	ret

00000b6c <return_distance>:
//print_char('\r');
}
}

int return_distance()
{
     b6c:	af 92       	push	r10
     b6e:	bf 92       	push	r11
     b70:	cf 92       	push	r12
     b72:	df 92       	push	r13
     b74:	ef 92       	push	r14
     b76:	ff 92       	push	r15
     b78:	0f 93       	push	r16
     b7a:	1f 93       	push	r17
return(ultra_time/div_factor);
     b7c:	20 91 8a 01 	lds	r18, 0x018A
     b80:	30 91 8b 01 	lds	r19, 0x018B
     b84:	40 91 8c 01 	lds	r20, 0x018C
     b88:	50 91 8d 01 	lds	r21, 0x018D
     b8c:	60 91 8e 01 	lds	r22, 0x018E
     b90:	70 91 8f 01 	lds	r23, 0x018F
     b94:	80 91 90 01 	lds	r24, 0x0190
     b98:	90 91 91 01 	lds	r25, 0x0191
     b9c:	ea e3       	ldi	r30, 0x3A	; 58
     b9e:	ae 2e       	mov	r10, r30
     ba0:	bb 24       	eor	r11, r11
     ba2:	cc 24       	eor	r12, r12
     ba4:	dd 24       	eor	r13, r13
     ba6:	ee 24       	eor	r14, r14
     ba8:	ff 24       	eor	r15, r15
     baa:	00 e0       	ldi	r16, 0x00	; 0
     bac:	10 e0       	ldi	r17, 0x00	; 0
     bae:	0e 94 e5 07 	call	0xfca	; 0xfca <__udivdi3>
     bb2:	c9 01       	movw	r24, r18
     bb4:	1f 91       	pop	r17
     bb6:	0f 91       	pop	r16
     bb8:	ff 90       	pop	r15
     bba:	ef 90       	pop	r14
     bbc:	df 90       	pop	r13
     bbe:	cf 90       	pop	r12
     bc0:	bf 90       	pop	r11
     bc2:	af 90       	pop	r10
     bc4:	08 95       	ret

00000bc6 <pwm_init>:
#include"ultrasonic.h"
int safe_flag=1;

void pwm_init()
{
	TCCR1A |=(1<<WGM11)|(1<<COM1A1)|(1<<COM1B1);
     bc6:	8f b5       	in	r24, 0x2f	; 47
     bc8:	82 6a       	ori	r24, 0xA2	; 162
     bca:	8f bd       	out	0x2f, r24	; 47
	TCCR1B |=(1<<WGM12)|(1<<WGM13)|(1<<CS10);
     bcc:	8e b5       	in	r24, 0x2e	; 46
     bce:	89 61       	ori	r24, 0x19	; 25
     bd0:	8e bd       	out	0x2e, r24	; 46
	DDRD |=(1<<PD5)|(1<<PD4);
     bd2:	81 b3       	in	r24, 0x11	; 17
     bd4:	80 63       	ori	r24, 0x30	; 48
     bd6:	81 bb       	out	0x11, r24	; 17
	ICR1 = 3999;
     bd8:	8f e9       	ldi	r24, 0x9F	; 159
     bda:	9f e0       	ldi	r25, 0x0F	; 15
     bdc:	97 bd       	out	0x27, r25	; 39
     bde:	86 bd       	out	0x26, r24	; 38
	sei();
     be0:	78 94       	sei
}
     be2:	08 95       	ret

00000be4 <setdirectiona>:

void setdirectiona(int direction)
{
     be4:	9c 01       	movw	r18, r24
	DDRC |= (1<<PC2)|(1<<PC3);
     be6:	84 b3       	in	r24, 0x14	; 20
     be8:	8c 60       	ori	r24, 0x0C	; 12
     bea:	84 bb       	out	0x14, r24	; 20
	if (direction == FORWARD)
     bec:	21 30       	cpi	r18, 0x01	; 1
     bee:	31 05       	cpc	r19, r1
     bf0:	19 f4       	brne	.+6      	; 0xbf8 <setdirectiona+0x14>
	{
		PORTC |= (1<<PC2);
     bf2:	aa 9a       	sbi	0x15, 2	; 21
		PORTC &= ~(1<<PC3);
     bf4:	ab 98       	cbi	0x15, 3	; 21
     bf6:	08 95       	ret
	}
	else if(direction == BACKWARD)
     bf8:	23 2b       	or	r18, r19
     bfa:	11 f4       	brne	.+4      	; 0xc00 <setdirectiona+0x1c>
	{
		PORTC &= ~(1<<PC2);
     bfc:	aa 98       	cbi	0x15, 2	; 21
		PORTC |= (1<<PC3);
     bfe:	ab 9a       	sbi	0x15, 3	; 21
     c00:	08 95       	ret

00000c02 <setdirectionb>:
	}
}

void setdirectionb(int direction)
{
     c02:	9c 01       	movw	r18, r24
	DDRC |=(1<<PC4)|(1<<PC5);
     c04:	84 b3       	in	r24, 0x14	; 20
     c06:	80 63       	ori	r24, 0x30	; 48
     c08:	84 bb       	out	0x14, r24	; 20
	if (direction == FORWARD)
     c0a:	21 30       	cpi	r18, 0x01	; 1
     c0c:	31 05       	cpc	r19, r1
     c0e:	19 f4       	brne	.+6      	; 0xc16 <setdirectionb+0x14>
	{
		PORTC |= (1<<PC4);
     c10:	ac 9a       	sbi	0x15, 4	; 21
		PORTC &= ~(1<<PC5);
     c12:	ad 98       	cbi	0x15, 5	; 21
     c14:	08 95       	ret
	}
	else if(direction == BACKWARD)
     c16:	23 2b       	or	r18, r19
     c18:	11 f4       	brne	.+4      	; 0xc1e <setdirectionb+0x1c>
	{
		PORTC &= ~(1<<PC4);
     c1a:	ac 98       	cbi	0x15, 4	; 21
		PORTC |= (1<<PC5);
     c1c:	ad 9a       	sbi	0x15, 5	; 21
     c1e:	08 95       	ret

00000c20 <dutycycle>:
	
}


unsigned int dutycycle (int per)
{
     c20:	aa 27       	eor	r26, r26
     c22:	97 fd       	sbrc	r25, 7
     c24:	a0 95       	com	r26
     c26:	ba 2f       	mov	r27, r26
     c28:	bc 01       	movw	r22, r24
     c2a:	cd 01       	movw	r24, r26
     c2c:	0e 94 60 15 	call	0x2ac0	; 0x2ac0 <__floatsisf>
     c30:	20 e0       	ldi	r18, 0x00	; 0
     c32:	30 e0       	ldi	r19, 0x00	; 0
     c34:	48 ec       	ldi	r20, 0xC8	; 200
     c36:	52 e4       	ldi	r21, 0x42	; 66
     c38:	0e 94 ca 14 	call	0x2994	; 0x2994 <__divsf3>
     c3c:	20 e0       	ldi	r18, 0x00	; 0
     c3e:	30 ef       	ldi	r19, 0xF0	; 240
     c40:	49 e7       	ldi	r20, 0x79	; 121
     c42:	55 e4       	ldi	r21, 0x45	; 69
     c44:	0e 94 ec 15 	call	0x2bd8	; 0x2bd8 <__mulsf3>
     c48:	0e 94 32 15 	call	0x2a64	; 0x2a64 <__fixunssfsi>
	return (((float) per/100)*3999);
}
     c4c:	cb 01       	movw	r24, r22
     c4e:	08 95       	ret

00000c50 <speed_ctrl>:

void speed_ctrl(int speeda , int speedb)
{
		OCR1A = speeda;
     c50:	9b bd       	out	0x2b, r25	; 43
     c52:	8a bd       	out	0x2a, r24	; 42
		OCR1B = speedb;
     c54:	79 bd       	out	0x29, r23	; 41
     c56:	68 bd       	out	0x28, r22	; 40
}
     c58:	08 95       	ret

00000c5a <setdutycycle>:

void setdutycycle(unsigned int *x,unsigned int *y,int num)
{
     c5a:	ef 92       	push	r14
     c5c:	ff 92       	push	r15
     c5e:	0f 93       	push	r16
     c60:	1f 93       	push	r17
     c62:	8c 01       	movw	r16, r24
     c64:	7b 01       	movw	r14, r22
     c66:	ca 01       	movw	r24, r20
	*x=dutycycle(num);
     c68:	0e 94 10 06 	call	0xc20	; 0xc20 <dutycycle>
     c6c:	f8 01       	movw	r30, r16
     c6e:	91 83       	std	Z+1, r25	; 0x01
     c70:	80 83       	st	Z, r24
	*y=dutycycle(num);
     c72:	f7 01       	movw	r30, r14
     c74:	91 83       	std	Z+1, r25	; 0x01
     c76:	80 83       	st	Z, r24
}
     c78:	1f 91       	pop	r17
     c7a:	0f 91       	pop	r16
     c7c:	ff 90       	pop	r15
     c7e:	ef 90       	pop	r14
     c80:	08 95       	ret

00000c82 <main>:


int main(void)
{
     c82:	cf 92       	push	r12
     c84:	df 92       	push	r13
     c86:	ef 92       	push	r14
     c88:	ff 92       	push	r15
     c8a:	0f 93       	push	r16
     c8c:	1f 93       	push	r17
     c8e:	df 93       	push	r29
     c90:	cf 93       	push	r28
     c92:	00 d0       	rcall	.+0      	; 0xc94 <main+0x12>
     c94:	00 d0       	rcall	.+0      	; 0xc96 <main+0x14>
     c96:	cd b7       	in	r28, 0x3d	; 61
     c98:	de b7       	in	r29, 0x3e	; 62
	unsigned int dutya=0;
     c9a:	1a 82       	std	Y+2, r1	; 0x02
     c9c:	19 82       	std	Y+1, r1	; 0x01
	unsigned int dutyb=0;
     c9e:	1c 82       	std	Y+4, r1	; 0x04
     ca0:	1b 82       	std	Y+3, r1	; 0x03
	uart_init();
     ca2:	0e 94 83 01 	call	0x306	; 0x306 <uart_init>
	pwm_init();
     ca6:	0e 94 e3 05 	call	0xbc6	; 0xbc6 <pwm_init>
		ultrasonic_init();
     caa:	0e 94 8b 05 	call	0xb16	; 0xb16 <ultrasonic_init>

	OCR1A = dutya;
     cae:	89 81       	ldd	r24, Y+1	; 0x01
     cb0:	9a 81       	ldd	r25, Y+2	; 0x02
     cb2:	9b bd       	out	0x2b, r25	; 43
     cb4:	8a bd       	out	0x2a, r24	; 42
	OCR1B = dutyb;
     cb6:	8b 81       	ldd	r24, Y+3	; 0x03
     cb8:	9c 81       	ldd	r25, Y+4	; 0x04
     cba:	99 bd       	out	0x29, r25	; 41
     cbc:	88 bd       	out	0x28, r24	; 40
			print_string("\n\r Character for performance:");
     cbe:	80 e6       	ldi	r24, 0x60	; 96
     cc0:	90 e0       	ldi	r25, 0x00	; 0
     cc2:	0e 94 50 01 	call	0x2a0	; 0x2a0 <print_string>
    {
ultrasonic_loop();
if (ultra_time<300)
safe_flag=0;
		else
safe_flag=1;
     cc6:	a1 e0       	ldi	r26, 0x01	; 1
     cc8:	ca 2e       	mov	r12, r26
     cca:	d1 2c       	mov	r13, r1
				setdutycycle(&dutya,&dutyb,70);
								speed_ctrl(dutya,dutyb);

				break;
			case '8':
				setdutycycle(&dutya,&dutyb,80);
     ccc:	f3 e0       	ldi	r31, 0x03	; 3
     cce:	ef 2e       	mov	r14, r31
     cd0:	f1 2c       	mov	r15, r1
     cd2:	ec 0e       	add	r14, r28
     cd4:	fd 1e       	adc	r15, r29
     cd6:	8e 01       	movw	r16, r28
     cd8:	0f 5f       	subi	r16, 0xFF	; 255
     cda:	1f 4f       	sbci	r17, 0xFF	; 255
	OCR1B = dutyb;
			print_string("\n\r Character for performance:");

    while (1) 
    {
ultrasonic_loop();
     cdc:	0e 94 9c 05 	call	0xb38	; 0xb38 <ultrasonic_loop>
if (ultra_time<300)
     ce0:	70 91 8a 01 	lds	r23, 0x018A
     ce4:	50 91 8b 01 	lds	r21, 0x018B
     ce8:	60 91 8c 01 	lds	r22, 0x018C
     cec:	40 91 8d 01 	lds	r20, 0x018D
     cf0:	30 91 8e 01 	lds	r19, 0x018E
     cf4:	20 91 8f 01 	lds	r18, 0x018F
     cf8:	90 91 90 01 	lds	r25, 0x0190
     cfc:	80 91 91 01 	lds	r24, 0x0191
     d00:	88 23       	and	r24, r24
     d02:	a9 f4       	brne	.+42     	; 0xd2e <main+0xac>
     d04:	99 23       	and	r25, r25
     d06:	99 f4       	brne	.+38     	; 0xd2e <main+0xac>
     d08:	22 23       	and	r18, r18
     d0a:	89 f4       	brne	.+34     	; 0xd2e <main+0xac>
     d0c:	33 23       	and	r19, r19
     d0e:	79 f4       	brne	.+30     	; 0xd2e <main+0xac>
     d10:	44 23       	and	r20, r20
     d12:	69 f4       	brne	.+26     	; 0xd2e <main+0xac>
     d14:	66 23       	and	r22, r22
     d16:	59 f4       	brne	.+22     	; 0xd2e <main+0xac>
     d18:	52 30       	cpi	r21, 0x02	; 2
     d1a:	48 f4       	brcc	.+18     	; 0xd2e <main+0xac>
     d1c:	51 30       	cpi	r21, 0x01	; 1
     d1e:	11 f4       	brne	.+4      	; 0xd24 <main+0xa2>
     d20:	7c 32       	cpi	r23, 0x2C	; 44
     d22:	28 f4       	brcc	.+10     	; 0xd2e <main+0xac>
safe_flag=0;
     d24:	10 92 7f 00 	sts	0x007F, r1
     d28:	10 92 7e 00 	sts	0x007E, r1
     d2c:	04 c0       	rjmp	.+8      	; 0xd36 <main+0xb4>
		else
safe_flag=1;
     d2e:	d0 92 7f 00 	sts	0x007F, r13
     d32:	c0 92 7e 00 	sts	0x007E, r12
if (safe_flag==1)
     d36:	80 91 7e 00 	lds	r24, 0x007E
     d3a:	90 91 7f 00 	lds	r25, 0x007F
     d3e:	01 97       	sbiw	r24, 0x01	; 1
     d40:	09 f0       	breq	.+2      	; 0xd44 <main+0xc2>
     d42:	aa c0       	rjmp	.+340    	; 0xe98 <main+0x216>
{ 
		switch(info)
     d44:	80 91 b2 01 	lds	r24, 0x01B2
     d48:	88 33       	cpi	r24, 0x38	; 56
     d4a:	09 f4       	brne	.+2      	; 0xd4e <main+0xcc>
     d4c:	94 c0       	rjmp	.+296    	; 0xe76 <main+0x1f4>
     d4e:	89 33       	cpi	r24, 0x39	; 57
     d50:	e0 f4       	brcc	.+56     	; 0xd8a <main+0x108>
     d52:	83 33       	cpi	r24, 0x33	; 51
     d54:	09 f4       	brne	.+2      	; 0xd58 <main+0xd6>
     d56:	76 c0       	rjmp	.+236    	; 0xe44 <main+0x1c2>
     d58:	84 33       	cpi	r24, 0x34	; 52
     d5a:	50 f4       	brcc	.+20     	; 0xd70 <main+0xee>
     d5c:	81 33       	cpi	r24, 0x31	; 49
     d5e:	09 f4       	brne	.+2      	; 0xd62 <main+0xe0>
     d60:	67 c0       	rjmp	.+206    	; 0xe30 <main+0x1ae>
     d62:	82 33       	cpi	r24, 0x32	; 50
     d64:	08 f0       	brcs	.+2      	; 0xd68 <main+0xe6>
     d66:	69 c0       	rjmp	.+210    	; 0xe3a <main+0x1b8>
     d68:	80 33       	cpi	r24, 0x30	; 48
     d6a:	09 f0       	breq	.+2      	; 0xd6e <main+0xec>
     d6c:	b7 cf       	rjmp	.-146    	; 0xcdc <main+0x5a>
     d6e:	5b c0       	rjmp	.+182    	; 0xe26 <main+0x1a4>
     d70:	85 33       	cpi	r24, 0x35	; 53
     d72:	09 f4       	brne	.+2      	; 0xd76 <main+0xf4>
     d74:	71 c0       	rjmp	.+226    	; 0xe58 <main+0x1d6>
     d76:	85 33       	cpi	r24, 0x35	; 53
     d78:	08 f4       	brcc	.+2      	; 0xd7c <main+0xfa>
     d7a:	69 c0       	rjmp	.+210    	; 0xe4e <main+0x1cc>
     d7c:	86 33       	cpi	r24, 0x36	; 54
     d7e:	09 f4       	brne	.+2      	; 0xd82 <main+0x100>
     d80:	70 c0       	rjmp	.+224    	; 0xe62 <main+0x1e0>
     d82:	87 33       	cpi	r24, 0x37	; 55
     d84:	09 f0       	breq	.+2      	; 0xd88 <main+0x106>
     d86:	aa cf       	rjmp	.-172    	; 0xcdc <main+0x5a>
     d88:	71 c0       	rjmp	.+226    	; 0xe6c <main+0x1ea>
     d8a:	87 34       	cpi	r24, 0x47	; 71
     d8c:	61 f1       	breq	.+88     	; 0xde6 <main+0x164>
     d8e:	88 34       	cpi	r24, 0x48	; 72
     d90:	48 f4       	brcc	.+18     	; 0xda4 <main+0x122>
     d92:	82 34       	cpi	r24, 0x42	; 66
     d94:	09 f4       	brne	.+2      	; 0xd98 <main+0x116>
     d96:	84 c0       	rjmp	.+264    	; 0xea0 <main+0x21e>
     d98:	86 34       	cpi	r24, 0x46	; 70
     d9a:	91 f0       	breq	.+36     	; 0xdc0 <main+0x13e>
     d9c:	89 33       	cpi	r24, 0x39	; 57
     d9e:	09 f0       	breq	.+2      	; 0xda2 <main+0x120>
     da0:	9d cf       	rjmp	.-198    	; 0xcdc <main+0x5a>
     da2:	6e c0       	rjmp	.+220    	; 0xe80 <main+0x1fe>
     da4:	8c 34       	cpi	r24, 0x4C	; 76
     da6:	99 f0       	breq	.+38     	; 0xdce <main+0x14c>
     da8:	8d 34       	cpi	r24, 0x4D	; 77
     daa:	20 f4       	brcc	.+8      	; 0xdb4 <main+0x132>
     dac:	89 34       	cpi	r24, 0x49	; 73
     dae:	09 f0       	breq	.+2      	; 0xdb2 <main+0x130>
     db0:	95 cf       	rjmp	.-214    	; 0xcdc <main+0x5a>
     db2:	2c c0       	rjmp	.+88     	; 0xe0c <main+0x18a>
     db4:	82 35       	cpi	r24, 0x52	; 82
     db6:	71 f0       	breq	.+28     	; 0xdd4 <main+0x152>
     db8:	81 37       	cpi	r24, 0x71	; 113
     dba:	09 f0       	breq	.+2      	; 0xdbe <main+0x13c>
     dbc:	8f cf       	rjmp	.-226    	; 0xcdc <main+0x5a>
     dbe:	65 c0       	rjmp	.+202    	; 0xe8a <main+0x208>
		{
			case 'F':
			    
				setdirectiona(FORWARD);
     dc0:	81 e0       	ldi	r24, 0x01	; 1
     dc2:	90 e0       	ldi	r25, 0x00	; 0
     dc4:	0e 94 f2 05 	call	0xbe4	; 0xbe4 <setdirectiona>
				setdirectionb(FORWARD);
     dc8:	81 e0       	ldi	r24, 0x01	; 1
     dca:	90 e0       	ldi	r25, 0x00	; 0
     dcc:	6f c0       	rjmp	.+222    	; 0xeac <main+0x22a>
				setdirectionb(BACKWARD);
				speed_ctrl(dutya,dutyb);
				break;
			case 'L':
			
				setdirectiona(FORWARD);
     dce:	81 e0       	ldi	r24, 0x01	; 1
     dd0:	90 e0       	ldi	r25, 0x00	; 0
     dd2:	68 c0       	rjmp	.+208    	; 0xea4 <main+0x222>
				setdirectionb(BACKWARD);
				speed_ctrl(dutya,dutyb);
				break;
			case 'R':
			
				setdirectionb(FORWARD);
     dd4:	81 e0       	ldi	r24, 0x01	; 1
     dd6:	90 e0       	ldi	r25, 0x00	; 0
     dd8:	0e 94 01 06 	call	0xc02	; 0xc02 <setdirectionb>
				setdirectiona(BACKWARD);
     ddc:	80 e0       	ldi	r24, 0x00	; 0
     dde:	90 e0       	ldi	r25, 0x00	; 0
     de0:	0e 94 f2 05 	call	0xbe4	; 0xbe4 <setdirectiona>
     de4:	65 c0       	rjmp	.+202    	; 0xeb0 <main+0x22e>
				speed_ctrl(dutya,dutyb);
				break;
			case 'G':
				setdirectiona(FORWARD);
     de6:	81 e0       	ldi	r24, 0x01	; 1
     de8:	90 e0       	ldi	r25, 0x00	; 0
     dea:	0e 94 f2 05 	call	0xbe4	; 0xbe4 <setdirectiona>
				setdirectionb(FORWARD);
     dee:	81 e0       	ldi	r24, 0x01	; 1
     df0:	90 e0       	ldi	r25, 0x00	; 0
     df2:	0e 94 01 06 	call	0xc02	; 0xc02 <setdirectionb>
				speed_ctrl(dutya,(dutyb-600));
     df6:	29 81       	ldd	r18, Y+1	; 0x01
     df8:	3a 81       	ldd	r19, Y+2	; 0x02
     dfa:	8b 81       	ldd	r24, Y+3	; 0x03
     dfc:	9c 81       	ldd	r25, Y+4	; 0x04
     dfe:	88 55       	subi	r24, 0x58	; 88
     e00:	92 40       	sbci	r25, 0x02	; 2
	return (((float) per/100)*3999);
}

void speed_ctrl(int speeda , int speedb)
{
		OCR1A = speeda;
     e02:	3b bd       	out	0x2b, r19	; 43
     e04:	2a bd       	out	0x2a, r18	; 42
		OCR1B = speedb;
     e06:	99 bd       	out	0x29, r25	; 41
     e08:	88 bd       	out	0x28, r24	; 40
     e0a:	68 cf       	rjmp	.-304    	; 0xcdc <main+0x5a>
				setdirectiona(FORWARD);
				setdirectionb(FORWARD);
				speed_ctrl(dutya,(dutyb-600));
				break;
			case 'I':
				setdirectiona(FORWARD);
     e0c:	81 e0       	ldi	r24, 0x01	; 1
     e0e:	90 e0       	ldi	r25, 0x00	; 0
     e10:	0e 94 f2 05 	call	0xbe4	; 0xbe4 <setdirectiona>
				setdirectionb(FORWARD);
     e14:	81 e0       	ldi	r24, 0x01	; 1
     e16:	90 e0       	ldi	r25, 0x00	; 0
     e18:	0e 94 01 06 	call	0xc02	; 0xc02 <setdirectionb>
				speed_ctrl((dutya-600),dutyb);
     e1c:	89 81       	ldd	r24, Y+1	; 0x01
     e1e:	9a 81       	ldd	r25, Y+2	; 0x02
     e20:	88 55       	subi	r24, 0x58	; 88
     e22:	92 40       	sbci	r25, 0x02	; 2
     e24:	47 c0       	rjmp	.+142    	; 0xeb4 <main+0x232>
				break;
			case '0':
			
				setdutycycle(&dutya,&dutyb,0);
     e26:	c8 01       	movw	r24, r16
     e28:	b7 01       	movw	r22, r14
     e2a:	40 e0       	ldi	r20, 0x00	; 0
     e2c:	50 e0       	ldi	r21, 0x00	; 0
     e2e:	31 c0       	rjmp	.+98     	; 0xe92 <main+0x210>
								speed_ctrl(dutya,dutyb);

				break;
			case '1':
				setdutycycle(&dutya,&dutyb,10);
     e30:	c8 01       	movw	r24, r16
     e32:	b7 01       	movw	r22, r14
     e34:	4a e0       	ldi	r20, 0x0A	; 10
     e36:	50 e0       	ldi	r21, 0x00	; 0
     e38:	2c c0       	rjmp	.+88     	; 0xe92 <main+0x210>
								speed_ctrl(dutya,dutyb);

				break;
			case '2':
				setdutycycle(&dutya,&dutyb,20);
     e3a:	c8 01       	movw	r24, r16
     e3c:	b7 01       	movw	r22, r14
     e3e:	44 e1       	ldi	r20, 0x14	; 20
     e40:	50 e0       	ldi	r21, 0x00	; 0
     e42:	27 c0       	rjmp	.+78     	; 0xe92 <main+0x210>
								speed_ctrl(dutya,dutyb);

				break;
			case '3':
				setdutycycle(&dutya,&dutyb,30);
     e44:	c8 01       	movw	r24, r16
     e46:	b7 01       	movw	r22, r14
     e48:	4e e1       	ldi	r20, 0x1E	; 30
     e4a:	50 e0       	ldi	r21, 0x00	; 0
     e4c:	22 c0       	rjmp	.+68     	; 0xe92 <main+0x210>
								speed_ctrl(dutya,dutyb);

				break;
			case '4':
				setdutycycle(&dutya,&dutyb,40);
     e4e:	c8 01       	movw	r24, r16
     e50:	b7 01       	movw	r22, r14
     e52:	48 e2       	ldi	r20, 0x28	; 40
     e54:	50 e0       	ldi	r21, 0x00	; 0
     e56:	1d c0       	rjmp	.+58     	; 0xe92 <main+0x210>
								speed_ctrl(dutya,dutyb);

				break;
			case '5':
				setdutycycle(&dutya,&dutyb,50);
     e58:	c8 01       	movw	r24, r16
     e5a:	b7 01       	movw	r22, r14
     e5c:	42 e3       	ldi	r20, 0x32	; 50
     e5e:	50 e0       	ldi	r21, 0x00	; 0
     e60:	18 c0       	rjmp	.+48     	; 0xe92 <main+0x210>
								speed_ctrl(dutya,dutyb);

				break;
			case '6':
				setdutycycle(&dutya,&dutyb,60);
     e62:	c8 01       	movw	r24, r16
     e64:	b7 01       	movw	r22, r14
     e66:	4c e3       	ldi	r20, 0x3C	; 60
     e68:	50 e0       	ldi	r21, 0x00	; 0
     e6a:	13 c0       	rjmp	.+38     	; 0xe92 <main+0x210>
								speed_ctrl(dutya,dutyb);

				break;
			case '7':
				setdutycycle(&dutya,&dutyb,70);
     e6c:	c8 01       	movw	r24, r16
     e6e:	b7 01       	movw	r22, r14
     e70:	46 e4       	ldi	r20, 0x46	; 70
     e72:	50 e0       	ldi	r21, 0x00	; 0
     e74:	0e c0       	rjmp	.+28     	; 0xe92 <main+0x210>
								speed_ctrl(dutya,dutyb);

				break;
			case '8':
				setdutycycle(&dutya,&dutyb,80);
     e76:	c8 01       	movw	r24, r16
     e78:	b7 01       	movw	r22, r14
     e7a:	40 e5       	ldi	r20, 0x50	; 80
     e7c:	50 e0       	ldi	r21, 0x00	; 0
     e7e:	09 c0       	rjmp	.+18     	; 0xe92 <main+0x210>
								speed_ctrl(dutya,dutyb);

				break;
			case '9':
				setdutycycle(&dutya,&dutyb,90);
     e80:	c8 01       	movw	r24, r16
     e82:	b7 01       	movw	r22, r14
     e84:	4a e5       	ldi	r20, 0x5A	; 90
     e86:	50 e0       	ldi	r21, 0x00	; 0
     e88:	04 c0       	rjmp	.+8      	; 0xe92 <main+0x210>
								speed_ctrl(dutya,dutyb);

				break;
			case 'q':
				setdutycycle(&dutya,&dutyb,100);
     e8a:	c8 01       	movw	r24, r16
     e8c:	b7 01       	movw	r22, r14
     e8e:	44 e6       	ldi	r20, 0x64	; 100
     e90:	50 e0       	ldi	r21, 0x00	; 0
     e92:	0e 94 2d 06 	call	0xc5a	; 0xc5a <setdutycycle>
     e96:	0c c0       	rjmp	.+24     	; 0xeb0 <main+0x22e>

else
{


	if (info=='B')
     e98:	80 91 b2 01 	lds	r24, 0x01B2
     e9c:	82 34       	cpi	r24, 0x42	; 66
     e9e:	89 f4       	brne	.+34     	; 0xec2 <main+0x240>
	{
	setdirectiona(BACKWARD);
     ea0:	80 e0       	ldi	r24, 0x00	; 0
     ea2:	90 e0       	ldi	r25, 0x00	; 0
     ea4:	0e 94 f2 05 	call	0xbe4	; 0xbe4 <setdirectiona>
				setdirectionb(BACKWARD);
     ea8:	80 e0       	ldi	r24, 0x00	; 0
     eaa:	90 e0       	ldi	r25, 0x00	; 0
     eac:	0e 94 01 06 	call	0xc02	; 0xc02 <setdirectionb>
				speed_ctrl(dutya,dutyb);
     eb0:	89 81       	ldd	r24, Y+1	; 0x01
     eb2:	9a 81       	ldd	r25, Y+2	; 0x02
     eb4:	2b 81       	ldd	r18, Y+3	; 0x03
     eb6:	3c 81       	ldd	r19, Y+4	; 0x04
	return (((float) per/100)*3999);
}

void speed_ctrl(int speeda , int speedb)
{
		OCR1A = speeda;
     eb8:	9b bd       	out	0x2b, r25	; 43
     eba:	8a bd       	out	0x2a, r24	; 42
		OCR1B = speedb;
     ebc:	39 bd       	out	0x29, r19	; 41
     ebe:	28 bd       	out	0x28, r18	; 40
     ec0:	0d cf       	rjmp	.-486    	; 0xcdc <main+0x5a>
				speed_ctrl(dutya,dutyb);
				}
				
				else 
				{
				PORTC &= ~(1<<PC4);
     ec2:	ac 98       	cbi	0x15, 4	; 21
	PORTC &= ~(1<<PC5);
     ec4:	ad 98       	cbi	0x15, 5	; 21
	PORTC &= ~(1<<PC2);
     ec6:	aa 98       	cbi	0x15, 2	; 21
	PORTC &= ~(1<<PC3);
     ec8:	ab 98       	cbi	0x15, 3	; 21
     eca:	08 cf       	rjmp	.-496    	; 0xcdc <main+0x5a>

00000ecc <__ashldi3>:
     ecc:	ef 92       	push	r14
     ece:	ff 92       	push	r15
     ed0:	0f 93       	push	r16
     ed2:	df 93       	push	r29
     ed4:	cf 93       	push	r28
     ed6:	cd b7       	in	r28, 0x3d	; 61
     ed8:	de b7       	in	r29, 0x3e	; 62
     eda:	60 97       	sbiw	r28, 0x10	; 16
     edc:	0f b6       	in	r0, 0x3f	; 63
     ede:	f8 94       	cli
     ee0:	de bf       	out	0x3e, r29	; 62
     ee2:	0f be       	out	0x3f, r0	; 63
     ee4:	cd bf       	out	0x3d, r28	; 61
     ee6:	a8 2f       	mov	r26, r24
     ee8:	00 23       	and	r16, r16
     eea:	09 f4       	brne	.+2      	; 0xeee <__ashldi3+0x22>
     eec:	61 c0       	rjmp	.+194    	; 0xfb0 <__ashldi3+0xe4>
     eee:	7e 01       	movw	r14, r28
     ef0:	08 94       	sec
     ef2:	e1 1c       	adc	r14, r1
     ef4:	f1 1c       	adc	r15, r1
     ef6:	88 e0       	ldi	r24, 0x08	; 8
     ef8:	f7 01       	movw	r30, r14
     efa:	11 92       	st	Z+, r1
     efc:	8a 95       	dec	r24
     efe:	e9 f7       	brne	.-6      	; 0xefa <__ashldi3+0x2e>
     f00:	29 83       	std	Y+1, r18	; 0x01
     f02:	3a 83       	std	Y+2, r19	; 0x02
     f04:	4b 83       	std	Y+3, r20	; 0x03
     f06:	5c 83       	std	Y+4, r21	; 0x04
     f08:	6d 83       	std	Y+5, r22	; 0x05
     f0a:	7e 83       	std	Y+6, r23	; 0x06
     f0c:	af 83       	std	Y+7, r26	; 0x07
     f0e:	98 87       	std	Y+8, r25	; 0x08
     f10:	80 e2       	ldi	r24, 0x20	; 32
     f12:	80 1b       	sub	r24, r16
     f14:	e8 2f       	mov	r30, r24
     f16:	ff 27       	eor	r31, r31
     f18:	e7 fd       	sbrc	r30, 7
     f1a:	f0 95       	com	r31
     f1c:	49 81       	ldd	r20, Y+1	; 0x01
     f1e:	5a 81       	ldd	r21, Y+2	; 0x02
     f20:	6b 81       	ldd	r22, Y+3	; 0x03
     f22:	7c 81       	ldd	r23, Y+4	; 0x04
     f24:	18 16       	cp	r1, r24
     f26:	84 f0       	brlt	.+32     	; 0xf48 <__ashldi3+0x7c>
     f28:	19 86       	std	Y+9, r1	; 0x09
     f2a:	1a 86       	std	Y+10, r1	; 0x0a
     f2c:	1b 86       	std	Y+11, r1	; 0x0b
     f2e:	1c 86       	std	Y+12, r1	; 0x0c
     f30:	88 27       	eor	r24, r24
     f32:	99 27       	eor	r25, r25
     f34:	8e 1b       	sub	r24, r30
     f36:	9f 0b       	sbc	r25, r31
     f38:	04 c0       	rjmp	.+8      	; 0xf42 <__ashldi3+0x76>
     f3a:	44 0f       	add	r20, r20
     f3c:	55 1f       	adc	r21, r21
     f3e:	66 1f       	adc	r22, r22
     f40:	77 1f       	adc	r23, r23
     f42:	8a 95       	dec	r24
     f44:	d2 f7       	brpl	.-12     	; 0xf3a <__ashldi3+0x6e>
     f46:	28 c0       	rjmp	.+80     	; 0xf98 <__ashldi3+0xcc>
     f48:	20 2f       	mov	r18, r16
     f4a:	33 27       	eor	r19, r19
     f4c:	27 fd       	sbrc	r18, 7
     f4e:	30 95       	com	r19
     f50:	db 01       	movw	r26, r22
     f52:	ca 01       	movw	r24, r20
     f54:	02 2e       	mov	r0, r18
     f56:	04 c0       	rjmp	.+8      	; 0xf60 <__ashldi3+0x94>
     f58:	88 0f       	add	r24, r24
     f5a:	99 1f       	adc	r25, r25
     f5c:	aa 1f       	adc	r26, r26
     f5e:	bb 1f       	adc	r27, r27
     f60:	0a 94       	dec	r0
     f62:	d2 f7       	brpl	.-12     	; 0xf58 <__ashldi3+0x8c>
     f64:	89 87       	std	Y+9, r24	; 0x09
     f66:	9a 87       	std	Y+10, r25	; 0x0a
     f68:	ab 87       	std	Y+11, r26	; 0x0b
     f6a:	bc 87       	std	Y+12, r27	; 0x0c
     f6c:	04 c0       	rjmp	.+8      	; 0xf76 <__ashldi3+0xaa>
     f6e:	76 95       	lsr	r23
     f70:	67 95       	ror	r22
     f72:	57 95       	ror	r21
     f74:	47 95       	ror	r20
     f76:	ea 95       	dec	r30
     f78:	d2 f7       	brpl	.-12     	; 0xf6e <__ashldi3+0xa2>
     f7a:	8d 81       	ldd	r24, Y+5	; 0x05
     f7c:	9e 81       	ldd	r25, Y+6	; 0x06
     f7e:	af 81       	ldd	r26, Y+7	; 0x07
     f80:	b8 85       	ldd	r27, Y+8	; 0x08
     f82:	04 c0       	rjmp	.+8      	; 0xf8c <__ashldi3+0xc0>
     f84:	88 0f       	add	r24, r24
     f86:	99 1f       	adc	r25, r25
     f88:	aa 1f       	adc	r26, r26
     f8a:	bb 1f       	adc	r27, r27
     f8c:	2a 95       	dec	r18
     f8e:	d2 f7       	brpl	.-12     	; 0xf84 <__ashldi3+0xb8>
     f90:	48 2b       	or	r20, r24
     f92:	59 2b       	or	r21, r25
     f94:	6a 2b       	or	r22, r26
     f96:	7b 2b       	or	r23, r27
     f98:	4d 87       	std	Y+13, r20	; 0x0d
     f9a:	5e 87       	std	Y+14, r21	; 0x0e
     f9c:	6f 87       	std	Y+15, r22	; 0x0f
     f9e:	78 8b       	std	Y+16, r23	; 0x10
     fa0:	29 85       	ldd	r18, Y+9	; 0x09
     fa2:	3a 85       	ldd	r19, Y+10	; 0x0a
     fa4:	4b 85       	ldd	r20, Y+11	; 0x0b
     fa6:	5c 85       	ldd	r21, Y+12	; 0x0c
     fa8:	6d 85       	ldd	r22, Y+13	; 0x0d
     faa:	7e 85       	ldd	r23, Y+14	; 0x0e
     fac:	af 85       	ldd	r26, Y+15	; 0x0f
     fae:	98 89       	ldd	r25, Y+16	; 0x10
     fb0:	8a 2f       	mov	r24, r26
     fb2:	60 96       	adiw	r28, 0x10	; 16
     fb4:	0f b6       	in	r0, 0x3f	; 63
     fb6:	f8 94       	cli
     fb8:	de bf       	out	0x3e, r29	; 62
     fba:	0f be       	out	0x3f, r0	; 63
     fbc:	cd bf       	out	0x3d, r28	; 61
     fbe:	cf 91       	pop	r28
     fc0:	df 91       	pop	r29
     fc2:	0f 91       	pop	r16
     fc4:	ff 90       	pop	r15
     fc6:	ef 90       	pop	r14
     fc8:	08 95       	ret

00000fca <__udivdi3>:
     fca:	ae e5       	ldi	r26, 0x5E	; 94
     fcc:	b0 e0       	ldi	r27, 0x00	; 0
     fce:	eb ee       	ldi	r30, 0xEB	; 235
     fd0:	f7 e0       	ldi	r31, 0x07	; 7
     fd2:	0c 94 b7 16 	jmp	0x2d6e	; 0x2d6e <__prologue_saves__>
     fd6:	a8 e0       	ldi	r26, 0x08	; 8
     fd8:	4e 01       	movw	r8, r28
     fda:	08 94       	sec
     fdc:	81 1c       	adc	r8, r1
     fde:	91 1c       	adc	r9, r1
     fe0:	f4 01       	movw	r30, r8
     fe2:	6a 2e       	mov	r6, r26
     fe4:	11 92       	st	Z+, r1
     fe6:	6a 94       	dec	r6
     fe8:	e9 f7       	brne	.-6      	; 0xfe4 <__udivdi3+0x1a>
     fea:	29 83       	std	Y+1, r18	; 0x01
     fec:	3a 83       	std	Y+2, r19	; 0x02
     fee:	4b 83       	std	Y+3, r20	; 0x03
     ff0:	5c 83       	std	Y+4, r21	; 0x04
     ff2:	6d 83       	std	Y+5, r22	; 0x05
     ff4:	7e 83       	std	Y+6, r23	; 0x06
     ff6:	8f 83       	std	Y+7, r24	; 0x07
     ff8:	98 87       	std	Y+8, r25	; 0x08
     ffa:	ce 01       	movw	r24, r28
     ffc:	09 96       	adiw	r24, 0x09	; 9
     ffe:	fc 01       	movw	r30, r24
    1000:	11 92       	st	Z+, r1
    1002:	aa 95       	dec	r26
    1004:	e9 f7       	brne	.-6      	; 0x1000 <__udivdi3+0x36>
    1006:	a9 86       	std	Y+9, r10	; 0x09
    1008:	ba 86       	std	Y+10, r11	; 0x0a
    100a:	cb 86       	std	Y+11, r12	; 0x0b
    100c:	dc 86       	std	Y+12, r13	; 0x0c
    100e:	ed 86       	std	Y+13, r14	; 0x0d
    1010:	fe 86       	std	Y+14, r15	; 0x0e
    1012:	0f 87       	std	Y+15, r16	; 0x0f
    1014:	18 8b       	std	Y+16, r17	; 0x10
    1016:	29 84       	ldd	r2, Y+9	; 0x09
    1018:	3a 84       	ldd	r3, Y+10	; 0x0a
    101a:	4b 84       	ldd	r4, Y+11	; 0x0b
    101c:	5c 84       	ldd	r5, Y+12	; 0x0c
    101e:	ed 84       	ldd	r14, Y+13	; 0x0d
    1020:	fe 84       	ldd	r15, Y+14	; 0x0e
    1022:	0f 85       	ldd	r16, Y+15	; 0x0f
    1024:	18 89       	ldd	r17, Y+16	; 0x10
    1026:	69 80       	ldd	r6, Y+1	; 0x01
    1028:	7a 80       	ldd	r7, Y+2	; 0x02
    102a:	8b 80       	ldd	r8, Y+3	; 0x03
    102c:	9c 80       	ldd	r9, Y+4	; 0x04
    102e:	6d a6       	std	Y+45, r6	; 0x2d
    1030:	7e a6       	std	Y+46, r7	; 0x2e
    1032:	8f a6       	std	Y+47, r8	; 0x2f
    1034:	98 aa       	std	Y+48, r9	; 0x30
    1036:	6d 80       	ldd	r6, Y+5	; 0x05
    1038:	7e 80       	ldd	r7, Y+6	; 0x06
    103a:	8f 80       	ldd	r8, Y+7	; 0x07
    103c:	98 84       	ldd	r9, Y+8	; 0x08
    103e:	e1 14       	cp	r14, r1
    1040:	f1 04       	cpc	r15, r1
    1042:	01 05       	cpc	r16, r1
    1044:	11 05       	cpc	r17, r1
    1046:	09 f0       	breq	.+2      	; 0x104a <__udivdi3+0x80>
    1048:	b3 c3       	rjmp	.+1894   	; 0x17b0 <__udivdi3+0x7e6>
    104a:	62 14       	cp	r6, r2
    104c:	73 04       	cpc	r7, r3
    104e:	84 04       	cpc	r8, r4
    1050:	95 04       	cpc	r9, r5
    1052:	08 f0       	brcs	.+2      	; 0x1056 <__udivdi3+0x8c>
    1054:	3d c1       	rjmp	.+634    	; 0x12d0 <__udivdi3+0x306>
    1056:	00 e0       	ldi	r16, 0x00	; 0
    1058:	20 16       	cp	r2, r16
    105a:	00 e0       	ldi	r16, 0x00	; 0
    105c:	30 06       	cpc	r3, r16
    105e:	01 e0       	ldi	r16, 0x01	; 1
    1060:	40 06       	cpc	r4, r16
    1062:	00 e0       	ldi	r16, 0x00	; 0
    1064:	50 06       	cpc	r5, r16
    1066:	88 f4       	brcc	.+34     	; 0x108a <__udivdi3+0xc0>
    1068:	1f ef       	ldi	r17, 0xFF	; 255
    106a:	21 16       	cp	r2, r17
    106c:	31 04       	cpc	r3, r1
    106e:	41 04       	cpc	r4, r1
    1070:	51 04       	cpc	r5, r1
    1072:	39 f0       	breq	.+14     	; 0x1082 <__udivdi3+0xb8>
    1074:	30 f0       	brcs	.+12     	; 0x1082 <__udivdi3+0xb8>
    1076:	48 e0       	ldi	r20, 0x08	; 8
    1078:	e4 2e       	mov	r14, r20
    107a:	f1 2c       	mov	r15, r1
    107c:	01 2d       	mov	r16, r1
    107e:	11 2d       	mov	r17, r1
    1080:	18 c0       	rjmp	.+48     	; 0x10b2 <__udivdi3+0xe8>
    1082:	ee 24       	eor	r14, r14
    1084:	ff 24       	eor	r15, r15
    1086:	87 01       	movw	r16, r14
    1088:	14 c0       	rjmp	.+40     	; 0x10b2 <__udivdi3+0xe8>
    108a:	20 e0       	ldi	r18, 0x00	; 0
    108c:	22 16       	cp	r2, r18
    108e:	20 e0       	ldi	r18, 0x00	; 0
    1090:	32 06       	cpc	r3, r18
    1092:	20 e0       	ldi	r18, 0x00	; 0
    1094:	42 06       	cpc	r4, r18
    1096:	21 e0       	ldi	r18, 0x01	; 1
    1098:	52 06       	cpc	r5, r18
    109a:	30 f0       	brcs	.+12     	; 0x10a8 <__udivdi3+0xde>
    109c:	38 e1       	ldi	r19, 0x18	; 24
    109e:	e3 2e       	mov	r14, r19
    10a0:	f1 2c       	mov	r15, r1
    10a2:	01 2d       	mov	r16, r1
    10a4:	11 2d       	mov	r17, r1
    10a6:	05 c0       	rjmp	.+10     	; 0x10b2 <__udivdi3+0xe8>
    10a8:	20 e1       	ldi	r18, 0x10	; 16
    10aa:	e2 2e       	mov	r14, r18
    10ac:	f1 2c       	mov	r15, r1
    10ae:	01 2d       	mov	r16, r1
    10b0:	11 2d       	mov	r17, r1
    10b2:	d2 01       	movw	r26, r4
    10b4:	c1 01       	movw	r24, r2
    10b6:	0e 2c       	mov	r0, r14
    10b8:	04 c0       	rjmp	.+8      	; 0x10c2 <__udivdi3+0xf8>
    10ba:	b6 95       	lsr	r27
    10bc:	a7 95       	ror	r26
    10be:	97 95       	ror	r25
    10c0:	87 95       	ror	r24
    10c2:	0a 94       	dec	r0
    10c4:	d2 f7       	brpl	.-12     	; 0x10ba <__udivdi3+0xf0>
    10c6:	8e 57       	subi	r24, 0x7E	; 126
    10c8:	9f 4f       	sbci	r25, 0xFF	; 255
    10ca:	dc 01       	movw	r26, r24
    10cc:	2c 91       	ld	r18, X
    10ce:	80 e2       	ldi	r24, 0x20	; 32
    10d0:	90 e0       	ldi	r25, 0x00	; 0
    10d2:	a0 e0       	ldi	r26, 0x00	; 0
    10d4:	b0 e0       	ldi	r27, 0x00	; 0
    10d6:	8e 19       	sub	r24, r14
    10d8:	9f 09       	sbc	r25, r15
    10da:	a0 0b       	sbc	r26, r16
    10dc:	b1 0b       	sbc	r27, r17
    10de:	7c 01       	movw	r14, r24
    10e0:	8d 01       	movw	r16, r26
    10e2:	e2 1a       	sub	r14, r18
    10e4:	f1 08       	sbc	r15, r1
    10e6:	01 09       	sbc	r16, r1
    10e8:	11 09       	sbc	r17, r1
    10ea:	e1 14       	cp	r14, r1
    10ec:	f1 04       	cpc	r15, r1
    10ee:	01 05       	cpc	r16, r1
    10f0:	11 05       	cpc	r17, r1
    10f2:	a1 f1       	breq	.+104    	; 0x115c <__udivdi3+0x192>
    10f4:	0e 2c       	mov	r0, r14
    10f6:	04 c0       	rjmp	.+8      	; 0x1100 <__udivdi3+0x136>
    10f8:	22 0c       	add	r2, r2
    10fa:	33 1c       	adc	r3, r3
    10fc:	44 1c       	adc	r4, r4
    10fe:	55 1c       	adc	r5, r5
    1100:	0a 94       	dec	r0
    1102:	d2 f7       	brpl	.-12     	; 0x10f8 <__udivdi3+0x12e>
    1104:	a4 01       	movw	r20, r8
    1106:	93 01       	movw	r18, r6
    1108:	0e 2c       	mov	r0, r14
    110a:	04 c0       	rjmp	.+8      	; 0x1114 <__udivdi3+0x14a>
    110c:	22 0f       	add	r18, r18
    110e:	33 1f       	adc	r19, r19
    1110:	44 1f       	adc	r20, r20
    1112:	55 1f       	adc	r21, r21
    1114:	0a 94       	dec	r0
    1116:	d2 f7       	brpl	.-12     	; 0x110c <__udivdi3+0x142>
    1118:	80 e2       	ldi	r24, 0x20	; 32
    111a:	90 e0       	ldi	r25, 0x00	; 0
    111c:	8e 19       	sub	r24, r14
    111e:	9f 09       	sbc	r25, r15
    1120:	6d a4       	ldd	r6, Y+45	; 0x2d
    1122:	7e a4       	ldd	r7, Y+46	; 0x2e
    1124:	8f a4       	ldd	r8, Y+47	; 0x2f
    1126:	98 a8       	ldd	r9, Y+48	; 0x30
    1128:	04 c0       	rjmp	.+8      	; 0x1132 <__udivdi3+0x168>
    112a:	96 94       	lsr	r9
    112c:	87 94       	ror	r8
    112e:	77 94       	ror	r7
    1130:	67 94       	ror	r6
    1132:	8a 95       	dec	r24
    1134:	d2 f7       	brpl	.-12     	; 0x112a <__udivdi3+0x160>
    1136:	62 2a       	or	r6, r18
    1138:	73 2a       	or	r7, r19
    113a:	84 2a       	or	r8, r20
    113c:	95 2a       	or	r9, r21
    113e:	ad a4       	ldd	r10, Y+45	; 0x2d
    1140:	be a4       	ldd	r11, Y+46	; 0x2e
    1142:	cf a4       	ldd	r12, Y+47	; 0x2f
    1144:	d8 a8       	ldd	r13, Y+48	; 0x30
    1146:	04 c0       	rjmp	.+8      	; 0x1150 <__udivdi3+0x186>
    1148:	aa 0c       	add	r10, r10
    114a:	bb 1c       	adc	r11, r11
    114c:	cc 1c       	adc	r12, r12
    114e:	dd 1c       	adc	r13, r13
    1150:	ea 94       	dec	r14
    1152:	d2 f7       	brpl	.-12     	; 0x1148 <__udivdi3+0x17e>
    1154:	ad a6       	std	Y+45, r10	; 0x2d
    1156:	be a6       	std	Y+46, r11	; 0x2e
    1158:	cf a6       	std	Y+47, r12	; 0x2f
    115a:	d8 aa       	std	Y+48, r13	; 0x30
    115c:	62 01       	movw	r12, r4
    115e:	ee 24       	eor	r14, r14
    1160:	ff 24       	eor	r15, r15
    1162:	cd aa       	std	Y+53, r12	; 0x35
    1164:	de aa       	std	Y+54, r13	; 0x36
    1166:	ef aa       	std	Y+55, r14	; 0x37
    1168:	f8 ae       	std	Y+56, r15	; 0x38
    116a:	92 01       	movw	r18, r4
    116c:	81 01       	movw	r16, r2
    116e:	20 70       	andi	r18, 0x00	; 0
    1170:	30 70       	andi	r19, 0x00	; 0
    1172:	09 af       	std	Y+57, r16	; 0x39
    1174:	1a af       	std	Y+58, r17	; 0x3a
    1176:	2b af       	std	Y+59, r18	; 0x3b
    1178:	3c af       	std	Y+60, r19	; 0x3c
    117a:	c4 01       	movw	r24, r8
    117c:	b3 01       	movw	r22, r6
    117e:	a7 01       	movw	r20, r14
    1180:	96 01       	movw	r18, r12
    1182:	0e 94 95 16 	call	0x2d2a	; 0x2d2a <__udivmodsi4>
    1186:	7b 01       	movw	r14, r22
    1188:	8c 01       	movw	r16, r24
    118a:	c4 01       	movw	r24, r8
    118c:	b3 01       	movw	r22, r6
    118e:	2d a9       	ldd	r18, Y+53	; 0x35
    1190:	3e a9       	ldd	r19, Y+54	; 0x36
    1192:	4f a9       	ldd	r20, Y+55	; 0x37
    1194:	58 ad       	ldd	r21, Y+56	; 0x38
    1196:	0e 94 95 16 	call	0x2d2a	; 0x2d2a <__udivmodsi4>
    119a:	c9 01       	movw	r24, r18
    119c:	da 01       	movw	r26, r20
    119e:	3c 01       	movw	r6, r24
    11a0:	4d 01       	movw	r8, r26
    11a2:	c4 01       	movw	r24, r8
    11a4:	b3 01       	movw	r22, r6
    11a6:	29 ad       	ldd	r18, Y+57	; 0x39
    11a8:	3a ad       	ldd	r19, Y+58	; 0x3a
    11aa:	4b ad       	ldd	r20, Y+59	; 0x3b
    11ac:	5c ad       	ldd	r21, Y+60	; 0x3c
    11ae:	0e 94 62 16 	call	0x2cc4	; 0x2cc4 <__mulsi3>
    11b2:	9b 01       	movw	r18, r22
    11b4:	ac 01       	movw	r20, r24
    11b6:	87 01       	movw	r16, r14
    11b8:	ff 24       	eor	r15, r15
    11ba:	ee 24       	eor	r14, r14
    11bc:	ad a4       	ldd	r10, Y+45	; 0x2d
    11be:	be a4       	ldd	r11, Y+46	; 0x2e
    11c0:	cf a4       	ldd	r12, Y+47	; 0x2f
    11c2:	d8 a8       	ldd	r13, Y+48	; 0x30
    11c4:	c6 01       	movw	r24, r12
    11c6:	aa 27       	eor	r26, r26
    11c8:	bb 27       	eor	r27, r27
    11ca:	57 01       	movw	r10, r14
    11cc:	68 01       	movw	r12, r16
    11ce:	a8 2a       	or	r10, r24
    11d0:	b9 2a       	or	r11, r25
    11d2:	ca 2a       	or	r12, r26
    11d4:	db 2a       	or	r13, r27
    11d6:	a2 16       	cp	r10, r18
    11d8:	b3 06       	cpc	r11, r19
    11da:	c4 06       	cpc	r12, r20
    11dc:	d5 06       	cpc	r13, r21
    11de:	e0 f4       	brcc	.+56     	; 0x1218 <__udivdi3+0x24e>
    11e0:	08 94       	sec
    11e2:	61 08       	sbc	r6, r1
    11e4:	71 08       	sbc	r7, r1
    11e6:	81 08       	sbc	r8, r1
    11e8:	91 08       	sbc	r9, r1
    11ea:	a2 0c       	add	r10, r2
    11ec:	b3 1c       	adc	r11, r3
    11ee:	c4 1c       	adc	r12, r4
    11f0:	d5 1c       	adc	r13, r5
    11f2:	a2 14       	cp	r10, r2
    11f4:	b3 04       	cpc	r11, r3
    11f6:	c4 04       	cpc	r12, r4
    11f8:	d5 04       	cpc	r13, r5
    11fa:	70 f0       	brcs	.+28     	; 0x1218 <__udivdi3+0x24e>
    11fc:	a2 16       	cp	r10, r18
    11fe:	b3 06       	cpc	r11, r19
    1200:	c4 06       	cpc	r12, r20
    1202:	d5 06       	cpc	r13, r21
    1204:	48 f4       	brcc	.+18     	; 0x1218 <__udivdi3+0x24e>
    1206:	08 94       	sec
    1208:	61 08       	sbc	r6, r1
    120a:	71 08       	sbc	r7, r1
    120c:	81 08       	sbc	r8, r1
    120e:	91 08       	sbc	r9, r1
    1210:	a2 0c       	add	r10, r2
    1212:	b3 1c       	adc	r11, r3
    1214:	c4 1c       	adc	r12, r4
    1216:	d5 1c       	adc	r13, r5
    1218:	a2 1a       	sub	r10, r18
    121a:	b3 0a       	sbc	r11, r19
    121c:	c4 0a       	sbc	r12, r20
    121e:	d5 0a       	sbc	r13, r21
    1220:	c6 01       	movw	r24, r12
    1222:	b5 01       	movw	r22, r10
    1224:	2d a9       	ldd	r18, Y+53	; 0x35
    1226:	3e a9       	ldd	r19, Y+54	; 0x36
    1228:	4f a9       	ldd	r20, Y+55	; 0x37
    122a:	58 ad       	ldd	r21, Y+56	; 0x38
    122c:	0e 94 95 16 	call	0x2d2a	; 0x2d2a <__udivmodsi4>
    1230:	7b 01       	movw	r14, r22
    1232:	8c 01       	movw	r16, r24
    1234:	c6 01       	movw	r24, r12
    1236:	b5 01       	movw	r22, r10
    1238:	2d a9       	ldd	r18, Y+53	; 0x35
    123a:	3e a9       	ldd	r19, Y+54	; 0x36
    123c:	4f a9       	ldd	r20, Y+55	; 0x37
    123e:	58 ad       	ldd	r21, Y+56	; 0x38
    1240:	0e 94 95 16 	call	0x2d2a	; 0x2d2a <__udivmodsi4>
    1244:	c9 01       	movw	r24, r18
    1246:	da 01       	movw	r26, r20
    1248:	5c 01       	movw	r10, r24
    124a:	6d 01       	movw	r12, r26
    124c:	c6 01       	movw	r24, r12
    124e:	b5 01       	movw	r22, r10
    1250:	29 ad       	ldd	r18, Y+57	; 0x39
    1252:	3a ad       	ldd	r19, Y+58	; 0x3a
    1254:	4b ad       	ldd	r20, Y+59	; 0x3b
    1256:	5c ad       	ldd	r21, Y+60	; 0x3c
    1258:	0e 94 62 16 	call	0x2cc4	; 0x2cc4 <__mulsi3>
    125c:	9b 01       	movw	r18, r22
    125e:	ac 01       	movw	r20, r24
    1260:	87 01       	movw	r16, r14
    1262:	ff 24       	eor	r15, r15
    1264:	ee 24       	eor	r14, r14
    1266:	8d a5       	ldd	r24, Y+45	; 0x2d
    1268:	9e a5       	ldd	r25, Y+46	; 0x2e
    126a:	af a5       	ldd	r26, Y+47	; 0x2f
    126c:	b8 a9       	ldd	r27, Y+48	; 0x30
    126e:	a0 70       	andi	r26, 0x00	; 0
    1270:	b0 70       	andi	r27, 0x00	; 0
    1272:	e8 2a       	or	r14, r24
    1274:	f9 2a       	or	r15, r25
    1276:	0a 2b       	or	r16, r26
    1278:	1b 2b       	or	r17, r27
    127a:	e2 16       	cp	r14, r18
    127c:	f3 06       	cpc	r15, r19
    127e:	04 07       	cpc	r16, r20
    1280:	15 07       	cpc	r17, r21
    1282:	c0 f4       	brcc	.+48     	; 0x12b4 <__udivdi3+0x2ea>
    1284:	08 94       	sec
    1286:	a1 08       	sbc	r10, r1
    1288:	b1 08       	sbc	r11, r1
    128a:	c1 08       	sbc	r12, r1
    128c:	d1 08       	sbc	r13, r1
    128e:	e2 0c       	add	r14, r2
    1290:	f3 1c       	adc	r15, r3
    1292:	04 1d       	adc	r16, r4
    1294:	15 1d       	adc	r17, r5
    1296:	e2 14       	cp	r14, r2
    1298:	f3 04       	cpc	r15, r3
    129a:	04 05       	cpc	r16, r4
    129c:	15 05       	cpc	r17, r5
    129e:	50 f0       	brcs	.+20     	; 0x12b4 <__udivdi3+0x2ea>
    12a0:	e2 16       	cp	r14, r18
    12a2:	f3 06       	cpc	r15, r19
    12a4:	04 07       	cpc	r16, r20
    12a6:	15 07       	cpc	r17, r21
    12a8:	28 f4       	brcc	.+10     	; 0x12b4 <__udivdi3+0x2ea>
    12aa:	08 94       	sec
    12ac:	a1 08       	sbc	r10, r1
    12ae:	b1 08       	sbc	r11, r1
    12b0:	c1 08       	sbc	r12, r1
    12b2:	d1 08       	sbc	r13, r1
    12b4:	d3 01       	movw	r26, r6
    12b6:	99 27       	eor	r25, r25
    12b8:	88 27       	eor	r24, r24
    12ba:	86 01       	movw	r16, r12
    12bc:	75 01       	movw	r14, r10
    12be:	e8 2a       	or	r14, r24
    12c0:	f9 2a       	or	r15, r25
    12c2:	0a 2b       	or	r16, r26
    12c4:	1b 2b       	or	r17, r27
    12c6:	e9 aa       	std	Y+49, r14	; 0x31
    12c8:	fa aa       	std	Y+50, r15	; 0x32
    12ca:	0b ab       	std	Y+51, r16	; 0x33
    12cc:	1c ab       	std	Y+52, r17	; 0x34
    12ce:	cf c4       	rjmp	.+2462   	; 0x1c6e <__udivdi3+0xca4>
    12d0:	21 14       	cp	r2, r1
    12d2:	31 04       	cpc	r3, r1
    12d4:	41 04       	cpc	r4, r1
    12d6:	51 04       	cpc	r5, r1
    12d8:	71 f4       	brne	.+28     	; 0x12f6 <__udivdi3+0x32c>
    12da:	61 e0       	ldi	r22, 0x01	; 1
    12dc:	70 e0       	ldi	r23, 0x00	; 0
    12de:	80 e0       	ldi	r24, 0x00	; 0
    12e0:	90 e0       	ldi	r25, 0x00	; 0
    12e2:	20 e0       	ldi	r18, 0x00	; 0
    12e4:	30 e0       	ldi	r19, 0x00	; 0
    12e6:	40 e0       	ldi	r20, 0x00	; 0
    12e8:	50 e0       	ldi	r21, 0x00	; 0
    12ea:	0e 94 95 16 	call	0x2d2a	; 0x2d2a <__udivmodsi4>
    12ee:	c9 01       	movw	r24, r18
    12f0:	da 01       	movw	r26, r20
    12f2:	1c 01       	movw	r2, r24
    12f4:	2d 01       	movw	r4, r26
    12f6:	00 e0       	ldi	r16, 0x00	; 0
    12f8:	20 16       	cp	r2, r16
    12fa:	00 e0       	ldi	r16, 0x00	; 0
    12fc:	30 06       	cpc	r3, r16
    12fe:	01 e0       	ldi	r16, 0x01	; 1
    1300:	40 06       	cpc	r4, r16
    1302:	00 e0       	ldi	r16, 0x00	; 0
    1304:	50 06       	cpc	r5, r16
    1306:	88 f4       	brcc	.+34     	; 0x132a <__udivdi3+0x360>
    1308:	1f ef       	ldi	r17, 0xFF	; 255
    130a:	21 16       	cp	r2, r17
    130c:	31 04       	cpc	r3, r1
    130e:	41 04       	cpc	r4, r1
    1310:	51 04       	cpc	r5, r1
    1312:	31 f0       	breq	.+12     	; 0x1320 <__udivdi3+0x356>
    1314:	28 f0       	brcs	.+10     	; 0x1320 <__udivdi3+0x356>
    1316:	48 e0       	ldi	r20, 0x08	; 8
    1318:	50 e0       	ldi	r21, 0x00	; 0
    131a:	60 e0       	ldi	r22, 0x00	; 0
    131c:	70 e0       	ldi	r23, 0x00	; 0
    131e:	17 c0       	rjmp	.+46     	; 0x134e <__udivdi3+0x384>
    1320:	40 e0       	ldi	r20, 0x00	; 0
    1322:	50 e0       	ldi	r21, 0x00	; 0
    1324:	60 e0       	ldi	r22, 0x00	; 0
    1326:	70 e0       	ldi	r23, 0x00	; 0
    1328:	12 c0       	rjmp	.+36     	; 0x134e <__udivdi3+0x384>
    132a:	20 e0       	ldi	r18, 0x00	; 0
    132c:	22 16       	cp	r2, r18
    132e:	20 e0       	ldi	r18, 0x00	; 0
    1330:	32 06       	cpc	r3, r18
    1332:	20 e0       	ldi	r18, 0x00	; 0
    1334:	42 06       	cpc	r4, r18
    1336:	21 e0       	ldi	r18, 0x01	; 1
    1338:	52 06       	cpc	r5, r18
    133a:	28 f0       	brcs	.+10     	; 0x1346 <__udivdi3+0x37c>
    133c:	48 e1       	ldi	r20, 0x18	; 24
    133e:	50 e0       	ldi	r21, 0x00	; 0
    1340:	60 e0       	ldi	r22, 0x00	; 0
    1342:	70 e0       	ldi	r23, 0x00	; 0
    1344:	04 c0       	rjmp	.+8      	; 0x134e <__udivdi3+0x384>
    1346:	40 e1       	ldi	r20, 0x10	; 16
    1348:	50 e0       	ldi	r21, 0x00	; 0
    134a:	60 e0       	ldi	r22, 0x00	; 0
    134c:	70 e0       	ldi	r23, 0x00	; 0
    134e:	d2 01       	movw	r26, r4
    1350:	c1 01       	movw	r24, r2
    1352:	04 2e       	mov	r0, r20
    1354:	04 c0       	rjmp	.+8      	; 0x135e <__udivdi3+0x394>
    1356:	b6 95       	lsr	r27
    1358:	a7 95       	ror	r26
    135a:	97 95       	ror	r25
    135c:	87 95       	ror	r24
    135e:	0a 94       	dec	r0
    1360:	d2 f7       	brpl	.-12     	; 0x1356 <__udivdi3+0x38c>
    1362:	8e 57       	subi	r24, 0x7E	; 126
    1364:	9f 4f       	sbci	r25, 0xFF	; 255
    1366:	dc 01       	movw	r26, r24
    1368:	2c 91       	ld	r18, X
    136a:	e0 e2       	ldi	r30, 0x20	; 32
    136c:	ee 2e       	mov	r14, r30
    136e:	f1 2c       	mov	r15, r1
    1370:	01 2d       	mov	r16, r1
    1372:	11 2d       	mov	r17, r1
    1374:	d8 01       	movw	r26, r16
    1376:	c7 01       	movw	r24, r14
    1378:	84 1b       	sub	r24, r20
    137a:	95 0b       	sbc	r25, r21
    137c:	a6 0b       	sbc	r26, r22
    137e:	b7 0b       	sbc	r27, r23
    1380:	82 1b       	sub	r24, r18
    1382:	91 09       	sbc	r25, r1
    1384:	a1 09       	sbc	r26, r1
    1386:	b1 09       	sbc	r27, r1
    1388:	00 97       	sbiw	r24, 0x00	; 0
    138a:	a1 05       	cpc	r26, r1
    138c:	b1 05       	cpc	r27, r1
    138e:	61 f4       	brne	.+24     	; 0x13a8 <__udivdi3+0x3de>
    1390:	64 01       	movw	r12, r8
    1392:	53 01       	movw	r10, r6
    1394:	a2 18       	sub	r10, r2
    1396:	b3 08       	sbc	r11, r3
    1398:	c4 08       	sbc	r12, r4
    139a:	d5 08       	sbc	r13, r5
    139c:	31 e0       	ldi	r19, 0x01	; 1
    139e:	63 2e       	mov	r6, r19
    13a0:	71 2c       	mov	r7, r1
    13a2:	81 2c       	mov	r8, r1
    13a4:	91 2c       	mov	r9, r1
    13a6:	1e c1       	rjmp	.+572    	; 0x15e4 <__udivdi3+0x61a>
    13a8:	6f 96       	adiw	r28, 0x1f	; 31
    13aa:	8f af       	std	Y+63, r24	; 0x3f
    13ac:	6f 97       	sbiw	r28, 0x1f	; 31
    13ae:	08 2e       	mov	r0, r24
    13b0:	04 c0       	rjmp	.+8      	; 0x13ba <__udivdi3+0x3f0>
    13b2:	22 0c       	add	r2, r2
    13b4:	33 1c       	adc	r3, r3
    13b6:	44 1c       	adc	r4, r4
    13b8:	55 1c       	adc	r5, r5
    13ba:	0a 94       	dec	r0
    13bc:	d2 f7       	brpl	.-12     	; 0x13b2 <__udivdi3+0x3e8>
    13be:	ee 2d       	mov	r30, r14
    13c0:	e8 1b       	sub	r30, r24
    13c2:	64 01       	movw	r12, r8
    13c4:	53 01       	movw	r10, r6
    13c6:	0e 2e       	mov	r0, r30
    13c8:	04 c0       	rjmp	.+8      	; 0x13d2 <__udivdi3+0x408>
    13ca:	d6 94       	lsr	r13
    13cc:	c7 94       	ror	r12
    13ce:	b7 94       	ror	r11
    13d0:	a7 94       	ror	r10
    13d2:	0a 94       	dec	r0
    13d4:	d2 f7       	brpl	.-12     	; 0x13ca <__udivdi3+0x400>
    13d6:	a4 01       	movw	r20, r8
    13d8:	93 01       	movw	r18, r6
    13da:	6f 96       	adiw	r28, 0x1f	; 31
    13dc:	0f ac       	ldd	r0, Y+63	; 0x3f
    13de:	6f 97       	sbiw	r28, 0x1f	; 31
    13e0:	04 c0       	rjmp	.+8      	; 0x13ea <__udivdi3+0x420>
    13e2:	22 0f       	add	r18, r18
    13e4:	33 1f       	adc	r19, r19
    13e6:	44 1f       	adc	r20, r20
    13e8:	55 1f       	adc	r21, r21
    13ea:	0a 94       	dec	r0
    13ec:	d2 f7       	brpl	.-12     	; 0x13e2 <__udivdi3+0x418>
    13ee:	6d a4       	ldd	r6, Y+45	; 0x2d
    13f0:	7e a4       	ldd	r7, Y+46	; 0x2e
    13f2:	8f a4       	ldd	r8, Y+47	; 0x2f
    13f4:	98 a8       	ldd	r9, Y+48	; 0x30
    13f6:	0e 2e       	mov	r0, r30
    13f8:	04 c0       	rjmp	.+8      	; 0x1402 <__udivdi3+0x438>
    13fa:	96 94       	lsr	r9
    13fc:	87 94       	ror	r8
    13fe:	77 94       	ror	r7
    1400:	67 94       	ror	r6
    1402:	0a 94       	dec	r0
    1404:	d2 f7       	brpl	.-12     	; 0x13fa <__udivdi3+0x430>
    1406:	84 01       	movw	r16, r8
    1408:	73 01       	movw	r14, r6
    140a:	e2 2a       	or	r14, r18
    140c:	f3 2a       	or	r15, r19
    140e:	04 2b       	or	r16, r20
    1410:	15 2b       	or	r17, r21
    1412:	e9 a6       	std	Y+41, r14	; 0x29
    1414:	fa a6       	std	Y+42, r15	; 0x2a
    1416:	0b a7       	std	Y+43, r16	; 0x2b
    1418:	1c a7       	std	Y+44, r17	; 0x2c
    141a:	32 01       	movw	r6, r4
    141c:	88 24       	eor	r8, r8
    141e:	99 24       	eor	r9, r9
    1420:	92 01       	movw	r18, r4
    1422:	81 01       	movw	r16, r2
    1424:	20 70       	andi	r18, 0x00	; 0
    1426:	30 70       	andi	r19, 0x00	; 0
    1428:	21 96       	adiw	r28, 0x01	; 1
    142a:	0c af       	std	Y+60, r16	; 0x3c
    142c:	1d af       	std	Y+61, r17	; 0x3d
    142e:	2e af       	std	Y+62, r18	; 0x3e
    1430:	3f af       	std	Y+63, r19	; 0x3f
    1432:	21 97       	sbiw	r28, 0x01	; 1
    1434:	c6 01       	movw	r24, r12
    1436:	b5 01       	movw	r22, r10
    1438:	a4 01       	movw	r20, r8
    143a:	93 01       	movw	r18, r6
    143c:	0e 94 95 16 	call	0x2d2a	; 0x2d2a <__udivmodsi4>
    1440:	7b 01       	movw	r14, r22
    1442:	8c 01       	movw	r16, r24
    1444:	c6 01       	movw	r24, r12
    1446:	b5 01       	movw	r22, r10
    1448:	a4 01       	movw	r20, r8
    144a:	93 01       	movw	r18, r6
    144c:	0e 94 95 16 	call	0x2d2a	; 0x2d2a <__udivmodsi4>
    1450:	c9 01       	movw	r24, r18
    1452:	da 01       	movw	r26, r20
    1454:	25 96       	adiw	r28, 0x05	; 5
    1456:	8c af       	std	Y+60, r24	; 0x3c
    1458:	9d af       	std	Y+61, r25	; 0x3d
    145a:	ae af       	std	Y+62, r26	; 0x3e
    145c:	bf af       	std	Y+63, r27	; 0x3f
    145e:	25 97       	sbiw	r28, 0x05	; 5
    1460:	bc 01       	movw	r22, r24
    1462:	cd 01       	movw	r24, r26
    1464:	21 96       	adiw	r28, 0x01	; 1
    1466:	2c ad       	ldd	r18, Y+60	; 0x3c
    1468:	3d ad       	ldd	r19, Y+61	; 0x3d
    146a:	4e ad       	ldd	r20, Y+62	; 0x3e
    146c:	5f ad       	ldd	r21, Y+63	; 0x3f
    146e:	21 97       	sbiw	r28, 0x01	; 1
    1470:	0e 94 62 16 	call	0x2cc4	; 0x2cc4 <__mulsi3>
    1474:	9b 01       	movw	r18, r22
    1476:	ac 01       	movw	r20, r24
    1478:	87 01       	movw	r16, r14
    147a:	ff 24       	eor	r15, r15
    147c:	ee 24       	eor	r14, r14
    147e:	a9 a4       	ldd	r10, Y+41	; 0x29
    1480:	ba a4       	ldd	r11, Y+42	; 0x2a
    1482:	cb a4       	ldd	r12, Y+43	; 0x2b
    1484:	dc a4       	ldd	r13, Y+44	; 0x2c
    1486:	c6 01       	movw	r24, r12
    1488:	aa 27       	eor	r26, r26
    148a:	bb 27       	eor	r27, r27
    148c:	5c 01       	movw	r10, r24
    148e:	6d 01       	movw	r12, r26
    1490:	ae 28       	or	r10, r14
    1492:	bf 28       	or	r11, r15
    1494:	c0 2a       	or	r12, r16
    1496:	d1 2a       	or	r13, r17
    1498:	a2 16       	cp	r10, r18
    149a:	b3 06       	cpc	r11, r19
    149c:	c4 06       	cpc	r12, r20
    149e:	d5 06       	cpc	r13, r21
    14a0:	60 f5       	brcc	.+88     	; 0x14fa <__udivdi3+0x530>
    14a2:	25 96       	adiw	r28, 0x05	; 5
    14a4:	6c ad       	ldd	r22, Y+60	; 0x3c
    14a6:	7d ad       	ldd	r23, Y+61	; 0x3d
    14a8:	8e ad       	ldd	r24, Y+62	; 0x3e
    14aa:	9f ad       	ldd	r25, Y+63	; 0x3f
    14ac:	25 97       	sbiw	r28, 0x05	; 5
    14ae:	61 50       	subi	r22, 0x01	; 1
    14b0:	70 40       	sbci	r23, 0x00	; 0
    14b2:	80 40       	sbci	r24, 0x00	; 0
    14b4:	90 40       	sbci	r25, 0x00	; 0
    14b6:	25 96       	adiw	r28, 0x05	; 5
    14b8:	6c af       	std	Y+60, r22	; 0x3c
    14ba:	7d af       	std	Y+61, r23	; 0x3d
    14bc:	8e af       	std	Y+62, r24	; 0x3e
    14be:	9f af       	std	Y+63, r25	; 0x3f
    14c0:	25 97       	sbiw	r28, 0x05	; 5
    14c2:	a2 0c       	add	r10, r2
    14c4:	b3 1c       	adc	r11, r3
    14c6:	c4 1c       	adc	r12, r4
    14c8:	d5 1c       	adc	r13, r5
    14ca:	a2 14       	cp	r10, r2
    14cc:	b3 04       	cpc	r11, r3
    14ce:	c4 04       	cpc	r12, r4
    14d0:	d5 04       	cpc	r13, r5
    14d2:	98 f0       	brcs	.+38     	; 0x14fa <__udivdi3+0x530>
    14d4:	a2 16       	cp	r10, r18
    14d6:	b3 06       	cpc	r11, r19
    14d8:	c4 06       	cpc	r12, r20
    14da:	d5 06       	cpc	r13, r21
    14dc:	70 f4       	brcc	.+28     	; 0x14fa <__udivdi3+0x530>
    14de:	61 50       	subi	r22, 0x01	; 1
    14e0:	70 40       	sbci	r23, 0x00	; 0
    14e2:	80 40       	sbci	r24, 0x00	; 0
    14e4:	90 40       	sbci	r25, 0x00	; 0
    14e6:	25 96       	adiw	r28, 0x05	; 5
    14e8:	6c af       	std	Y+60, r22	; 0x3c
    14ea:	7d af       	std	Y+61, r23	; 0x3d
    14ec:	8e af       	std	Y+62, r24	; 0x3e
    14ee:	9f af       	std	Y+63, r25	; 0x3f
    14f0:	25 97       	sbiw	r28, 0x05	; 5
    14f2:	a2 0c       	add	r10, r2
    14f4:	b3 1c       	adc	r11, r3
    14f6:	c4 1c       	adc	r12, r4
    14f8:	d5 1c       	adc	r13, r5
    14fa:	a2 1a       	sub	r10, r18
    14fc:	b3 0a       	sbc	r11, r19
    14fe:	c4 0a       	sbc	r12, r20
    1500:	d5 0a       	sbc	r13, r21
    1502:	c6 01       	movw	r24, r12
    1504:	b5 01       	movw	r22, r10
    1506:	a4 01       	movw	r20, r8
    1508:	93 01       	movw	r18, r6
    150a:	0e 94 95 16 	call	0x2d2a	; 0x2d2a <__udivmodsi4>
    150e:	7b 01       	movw	r14, r22
    1510:	8c 01       	movw	r16, r24
    1512:	c6 01       	movw	r24, r12
    1514:	b5 01       	movw	r22, r10
    1516:	a4 01       	movw	r20, r8
    1518:	93 01       	movw	r18, r6
    151a:	0e 94 95 16 	call	0x2d2a	; 0x2d2a <__udivmodsi4>
    151e:	c9 01       	movw	r24, r18
    1520:	da 01       	movw	r26, r20
    1522:	3c 01       	movw	r6, r24
    1524:	4d 01       	movw	r8, r26
    1526:	c4 01       	movw	r24, r8
    1528:	b3 01       	movw	r22, r6
    152a:	21 96       	adiw	r28, 0x01	; 1
    152c:	2c ad       	ldd	r18, Y+60	; 0x3c
    152e:	3d ad       	ldd	r19, Y+61	; 0x3d
    1530:	4e ad       	ldd	r20, Y+62	; 0x3e
    1532:	5f ad       	ldd	r21, Y+63	; 0x3f
    1534:	21 97       	sbiw	r28, 0x01	; 1
    1536:	0e 94 62 16 	call	0x2cc4	; 0x2cc4 <__mulsi3>
    153a:	9b 01       	movw	r18, r22
    153c:	ac 01       	movw	r20, r24
    153e:	87 01       	movw	r16, r14
    1540:	ff 24       	eor	r15, r15
    1542:	ee 24       	eor	r14, r14
    1544:	89 a5       	ldd	r24, Y+41	; 0x29
    1546:	9a a5       	ldd	r25, Y+42	; 0x2a
    1548:	ab a5       	ldd	r26, Y+43	; 0x2b
    154a:	bc a5       	ldd	r27, Y+44	; 0x2c
    154c:	a0 70       	andi	r26, 0x00	; 0
    154e:	b0 70       	andi	r27, 0x00	; 0
    1550:	57 01       	movw	r10, r14
    1552:	68 01       	movw	r12, r16
    1554:	a8 2a       	or	r10, r24
    1556:	b9 2a       	or	r11, r25
    1558:	ca 2a       	or	r12, r26
    155a:	db 2a       	or	r13, r27
    155c:	a2 16       	cp	r10, r18
    155e:	b3 06       	cpc	r11, r19
    1560:	c4 06       	cpc	r12, r20
    1562:	d5 06       	cpc	r13, r21
    1564:	e0 f4       	brcc	.+56     	; 0x159e <__udivdi3+0x5d4>
    1566:	08 94       	sec
    1568:	61 08       	sbc	r6, r1
    156a:	71 08       	sbc	r7, r1
    156c:	81 08       	sbc	r8, r1
    156e:	91 08       	sbc	r9, r1
    1570:	a2 0c       	add	r10, r2
    1572:	b3 1c       	adc	r11, r3
    1574:	c4 1c       	adc	r12, r4
    1576:	d5 1c       	adc	r13, r5
    1578:	a2 14       	cp	r10, r2
    157a:	b3 04       	cpc	r11, r3
    157c:	c4 04       	cpc	r12, r4
    157e:	d5 04       	cpc	r13, r5
    1580:	70 f0       	brcs	.+28     	; 0x159e <__udivdi3+0x5d4>
    1582:	a2 16       	cp	r10, r18
    1584:	b3 06       	cpc	r11, r19
    1586:	c4 06       	cpc	r12, r20
    1588:	d5 06       	cpc	r13, r21
    158a:	48 f4       	brcc	.+18     	; 0x159e <__udivdi3+0x5d4>
    158c:	08 94       	sec
    158e:	61 08       	sbc	r6, r1
    1590:	71 08       	sbc	r7, r1
    1592:	81 08       	sbc	r8, r1
    1594:	91 08       	sbc	r9, r1
    1596:	a2 0c       	add	r10, r2
    1598:	b3 1c       	adc	r11, r3
    159a:	c4 1c       	adc	r12, r4
    159c:	d5 1c       	adc	r13, r5
    159e:	8d a5       	ldd	r24, Y+45	; 0x2d
    15a0:	9e a5       	ldd	r25, Y+46	; 0x2e
    15a2:	af a5       	ldd	r26, Y+47	; 0x2f
    15a4:	b8 a9       	ldd	r27, Y+48	; 0x30
    15a6:	6f 96       	adiw	r28, 0x1f	; 31
    15a8:	0f ac       	ldd	r0, Y+63	; 0x3f
    15aa:	6f 97       	sbiw	r28, 0x1f	; 31
    15ac:	04 c0       	rjmp	.+8      	; 0x15b6 <__udivdi3+0x5ec>
    15ae:	88 0f       	add	r24, r24
    15b0:	99 1f       	adc	r25, r25
    15b2:	aa 1f       	adc	r26, r26
    15b4:	bb 1f       	adc	r27, r27
    15b6:	0a 94       	dec	r0
    15b8:	d2 f7       	brpl	.-12     	; 0x15ae <__udivdi3+0x5e4>
    15ba:	8d a7       	std	Y+45, r24	; 0x2d
    15bc:	9e a7       	std	Y+46, r25	; 0x2e
    15be:	af a7       	std	Y+47, r26	; 0x2f
    15c0:	b8 ab       	std	Y+48, r27	; 0x30
    15c2:	a2 1a       	sub	r10, r18
    15c4:	b3 0a       	sbc	r11, r19
    15c6:	c4 0a       	sbc	r12, r20
    15c8:	d5 0a       	sbc	r13, r21
    15ca:	25 96       	adiw	r28, 0x05	; 5
    15cc:	ec ac       	ldd	r14, Y+60	; 0x3c
    15ce:	fd ac       	ldd	r15, Y+61	; 0x3d
    15d0:	0e ad       	ldd	r16, Y+62	; 0x3e
    15d2:	1f ad       	ldd	r17, Y+63	; 0x3f
    15d4:	25 97       	sbiw	r28, 0x05	; 5
    15d6:	d7 01       	movw	r26, r14
    15d8:	99 27       	eor	r25, r25
    15da:	88 27       	eor	r24, r24
    15dc:	68 2a       	or	r6, r24
    15de:	79 2a       	or	r7, r25
    15e0:	8a 2a       	or	r8, r26
    15e2:	9b 2a       	or	r9, r27
    15e4:	82 01       	movw	r16, r4
    15e6:	22 27       	eor	r18, r18
    15e8:	33 27       	eor	r19, r19
    15ea:	29 96       	adiw	r28, 0x09	; 9
    15ec:	0c af       	std	Y+60, r16	; 0x3c
    15ee:	1d af       	std	Y+61, r17	; 0x3d
    15f0:	2e af       	std	Y+62, r18	; 0x3e
    15f2:	3f af       	std	Y+63, r19	; 0x3f
    15f4:	29 97       	sbiw	r28, 0x09	; 9
    15f6:	a2 01       	movw	r20, r4
    15f8:	91 01       	movw	r18, r2
    15fa:	40 70       	andi	r20, 0x00	; 0
    15fc:	50 70       	andi	r21, 0x00	; 0
    15fe:	2d 96       	adiw	r28, 0x0d	; 13
    1600:	2c af       	std	Y+60, r18	; 0x3c
    1602:	3d af       	std	Y+61, r19	; 0x3d
    1604:	4e af       	std	Y+62, r20	; 0x3e
    1606:	5f af       	std	Y+63, r21	; 0x3f
    1608:	2d 97       	sbiw	r28, 0x0d	; 13
    160a:	c6 01       	movw	r24, r12
    160c:	b5 01       	movw	r22, r10
    160e:	29 96       	adiw	r28, 0x09	; 9
    1610:	2c ad       	ldd	r18, Y+60	; 0x3c
    1612:	3d ad       	ldd	r19, Y+61	; 0x3d
    1614:	4e ad       	ldd	r20, Y+62	; 0x3e
    1616:	5f ad       	ldd	r21, Y+63	; 0x3f
    1618:	29 97       	sbiw	r28, 0x09	; 9
    161a:	0e 94 95 16 	call	0x2d2a	; 0x2d2a <__udivmodsi4>
    161e:	7b 01       	movw	r14, r22
    1620:	8c 01       	movw	r16, r24
    1622:	c6 01       	movw	r24, r12
    1624:	b5 01       	movw	r22, r10
    1626:	29 96       	adiw	r28, 0x09	; 9
    1628:	2c ad       	ldd	r18, Y+60	; 0x3c
    162a:	3d ad       	ldd	r19, Y+61	; 0x3d
    162c:	4e ad       	ldd	r20, Y+62	; 0x3e
    162e:	5f ad       	ldd	r21, Y+63	; 0x3f
    1630:	29 97       	sbiw	r28, 0x09	; 9
    1632:	0e 94 95 16 	call	0x2d2a	; 0x2d2a <__udivmodsi4>
    1636:	c9 01       	movw	r24, r18
    1638:	da 01       	movw	r26, r20
    163a:	61 96       	adiw	r28, 0x11	; 17
    163c:	8c af       	std	Y+60, r24	; 0x3c
    163e:	9d af       	std	Y+61, r25	; 0x3d
    1640:	ae af       	std	Y+62, r26	; 0x3e
    1642:	bf af       	std	Y+63, r27	; 0x3f
    1644:	61 97       	sbiw	r28, 0x11	; 17
    1646:	bc 01       	movw	r22, r24
    1648:	cd 01       	movw	r24, r26
    164a:	2d 96       	adiw	r28, 0x0d	; 13
    164c:	2c ad       	ldd	r18, Y+60	; 0x3c
    164e:	3d ad       	ldd	r19, Y+61	; 0x3d
    1650:	4e ad       	ldd	r20, Y+62	; 0x3e
    1652:	5f ad       	ldd	r21, Y+63	; 0x3f
    1654:	2d 97       	sbiw	r28, 0x0d	; 13
    1656:	0e 94 62 16 	call	0x2cc4	; 0x2cc4 <__mulsi3>
    165a:	9b 01       	movw	r18, r22
    165c:	ac 01       	movw	r20, r24
    165e:	87 01       	movw	r16, r14
    1660:	ff 24       	eor	r15, r15
    1662:	ee 24       	eor	r14, r14
    1664:	ad a4       	ldd	r10, Y+45	; 0x2d
    1666:	be a4       	ldd	r11, Y+46	; 0x2e
    1668:	cf a4       	ldd	r12, Y+47	; 0x2f
    166a:	d8 a8       	ldd	r13, Y+48	; 0x30
    166c:	c6 01       	movw	r24, r12
    166e:	aa 27       	eor	r26, r26
    1670:	bb 27       	eor	r27, r27
    1672:	57 01       	movw	r10, r14
    1674:	68 01       	movw	r12, r16
    1676:	a8 2a       	or	r10, r24
    1678:	b9 2a       	or	r11, r25
    167a:	ca 2a       	or	r12, r26
    167c:	db 2a       	or	r13, r27
    167e:	a2 16       	cp	r10, r18
    1680:	b3 06       	cpc	r11, r19
    1682:	c4 06       	cpc	r12, r20
    1684:	d5 06       	cpc	r13, r21
    1686:	60 f5       	brcc	.+88     	; 0x16e0 <__udivdi3+0x716>
    1688:	61 96       	adiw	r28, 0x11	; 17
    168a:	6c ad       	ldd	r22, Y+60	; 0x3c
    168c:	7d ad       	ldd	r23, Y+61	; 0x3d
    168e:	8e ad       	ldd	r24, Y+62	; 0x3e
    1690:	9f ad       	ldd	r25, Y+63	; 0x3f
    1692:	61 97       	sbiw	r28, 0x11	; 17
    1694:	61 50       	subi	r22, 0x01	; 1
    1696:	70 40       	sbci	r23, 0x00	; 0
    1698:	80 40       	sbci	r24, 0x00	; 0
    169a:	90 40       	sbci	r25, 0x00	; 0
    169c:	61 96       	adiw	r28, 0x11	; 17
    169e:	6c af       	std	Y+60, r22	; 0x3c
    16a0:	7d af       	std	Y+61, r23	; 0x3d
    16a2:	8e af       	std	Y+62, r24	; 0x3e
    16a4:	9f af       	std	Y+63, r25	; 0x3f
    16a6:	61 97       	sbiw	r28, 0x11	; 17
    16a8:	a2 0c       	add	r10, r2
    16aa:	b3 1c       	adc	r11, r3
    16ac:	c4 1c       	adc	r12, r4
    16ae:	d5 1c       	adc	r13, r5
    16b0:	a2 14       	cp	r10, r2
    16b2:	b3 04       	cpc	r11, r3
    16b4:	c4 04       	cpc	r12, r4
    16b6:	d5 04       	cpc	r13, r5
    16b8:	98 f0       	brcs	.+38     	; 0x16e0 <__udivdi3+0x716>
    16ba:	a2 16       	cp	r10, r18
    16bc:	b3 06       	cpc	r11, r19
    16be:	c4 06       	cpc	r12, r20
    16c0:	d5 06       	cpc	r13, r21
    16c2:	70 f4       	brcc	.+28     	; 0x16e0 <__udivdi3+0x716>
    16c4:	61 50       	subi	r22, 0x01	; 1
    16c6:	70 40       	sbci	r23, 0x00	; 0
    16c8:	80 40       	sbci	r24, 0x00	; 0
    16ca:	90 40       	sbci	r25, 0x00	; 0
    16cc:	61 96       	adiw	r28, 0x11	; 17
    16ce:	6c af       	std	Y+60, r22	; 0x3c
    16d0:	7d af       	std	Y+61, r23	; 0x3d
    16d2:	8e af       	std	Y+62, r24	; 0x3e
    16d4:	9f af       	std	Y+63, r25	; 0x3f
    16d6:	61 97       	sbiw	r28, 0x11	; 17
    16d8:	a2 0c       	add	r10, r2
    16da:	b3 1c       	adc	r11, r3
    16dc:	c4 1c       	adc	r12, r4
    16de:	d5 1c       	adc	r13, r5
    16e0:	a2 1a       	sub	r10, r18
    16e2:	b3 0a       	sbc	r11, r19
    16e4:	c4 0a       	sbc	r12, r20
    16e6:	d5 0a       	sbc	r13, r21
    16e8:	c6 01       	movw	r24, r12
    16ea:	b5 01       	movw	r22, r10
    16ec:	29 96       	adiw	r28, 0x09	; 9
    16ee:	2c ad       	ldd	r18, Y+60	; 0x3c
    16f0:	3d ad       	ldd	r19, Y+61	; 0x3d
    16f2:	4e ad       	ldd	r20, Y+62	; 0x3e
    16f4:	5f ad       	ldd	r21, Y+63	; 0x3f
    16f6:	29 97       	sbiw	r28, 0x09	; 9
    16f8:	0e 94 95 16 	call	0x2d2a	; 0x2d2a <__udivmodsi4>
    16fc:	7b 01       	movw	r14, r22
    16fe:	8c 01       	movw	r16, r24
    1700:	c6 01       	movw	r24, r12
    1702:	b5 01       	movw	r22, r10
    1704:	29 96       	adiw	r28, 0x09	; 9
    1706:	2c ad       	ldd	r18, Y+60	; 0x3c
    1708:	3d ad       	ldd	r19, Y+61	; 0x3d
    170a:	4e ad       	ldd	r20, Y+62	; 0x3e
    170c:	5f ad       	ldd	r21, Y+63	; 0x3f
    170e:	29 97       	sbiw	r28, 0x09	; 9
    1710:	0e 94 95 16 	call	0x2d2a	; 0x2d2a <__udivmodsi4>
    1714:	c9 01       	movw	r24, r18
    1716:	da 01       	movw	r26, r20
    1718:	5c 01       	movw	r10, r24
    171a:	6d 01       	movw	r12, r26
    171c:	c6 01       	movw	r24, r12
    171e:	b5 01       	movw	r22, r10
    1720:	2d 96       	adiw	r28, 0x0d	; 13
    1722:	2c ad       	ldd	r18, Y+60	; 0x3c
    1724:	3d ad       	ldd	r19, Y+61	; 0x3d
    1726:	4e ad       	ldd	r20, Y+62	; 0x3e
    1728:	5f ad       	ldd	r21, Y+63	; 0x3f
    172a:	2d 97       	sbiw	r28, 0x0d	; 13
    172c:	0e 94 62 16 	call	0x2cc4	; 0x2cc4 <__mulsi3>
    1730:	9b 01       	movw	r18, r22
    1732:	ac 01       	movw	r20, r24
    1734:	87 01       	movw	r16, r14
    1736:	ff 24       	eor	r15, r15
    1738:	ee 24       	eor	r14, r14
    173a:	8d a5       	ldd	r24, Y+45	; 0x2d
    173c:	9e a5       	ldd	r25, Y+46	; 0x2e
    173e:	af a5       	ldd	r26, Y+47	; 0x2f
    1740:	b8 a9       	ldd	r27, Y+48	; 0x30
    1742:	a0 70       	andi	r26, 0x00	; 0
    1744:	b0 70       	andi	r27, 0x00	; 0
    1746:	e8 2a       	or	r14, r24
    1748:	f9 2a       	or	r15, r25
    174a:	0a 2b       	or	r16, r26
    174c:	1b 2b       	or	r17, r27
    174e:	e2 16       	cp	r14, r18
    1750:	f3 06       	cpc	r15, r19
    1752:	04 07       	cpc	r16, r20
    1754:	15 07       	cpc	r17, r21
    1756:	c0 f4       	brcc	.+48     	; 0x1788 <__udivdi3+0x7be>
    1758:	08 94       	sec
    175a:	a1 08       	sbc	r10, r1
    175c:	b1 08       	sbc	r11, r1
    175e:	c1 08       	sbc	r12, r1
    1760:	d1 08       	sbc	r13, r1
    1762:	e2 0c       	add	r14, r2
    1764:	f3 1c       	adc	r15, r3
    1766:	04 1d       	adc	r16, r4
    1768:	15 1d       	adc	r17, r5
    176a:	e2 14       	cp	r14, r2
    176c:	f3 04       	cpc	r15, r3
    176e:	04 05       	cpc	r16, r4
    1770:	15 05       	cpc	r17, r5
    1772:	50 f0       	brcs	.+20     	; 0x1788 <__udivdi3+0x7be>
    1774:	e2 16       	cp	r14, r18
    1776:	f3 06       	cpc	r15, r19
    1778:	04 07       	cpc	r16, r20
    177a:	15 07       	cpc	r17, r21
    177c:	28 f4       	brcc	.+10     	; 0x1788 <__udivdi3+0x7be>
    177e:	08 94       	sec
    1780:	a1 08       	sbc	r10, r1
    1782:	b1 08       	sbc	r11, r1
    1784:	c1 08       	sbc	r12, r1
    1786:	d1 08       	sbc	r13, r1
    1788:	61 96       	adiw	r28, 0x11	; 17
    178a:	ec ac       	ldd	r14, Y+60	; 0x3c
    178c:	fd ac       	ldd	r15, Y+61	; 0x3d
    178e:	0e ad       	ldd	r16, Y+62	; 0x3e
    1790:	1f ad       	ldd	r17, Y+63	; 0x3f
    1792:	61 97       	sbiw	r28, 0x11	; 17
    1794:	d7 01       	movw	r26, r14
    1796:	99 27       	eor	r25, r25
    1798:	88 27       	eor	r24, r24
    179a:	96 01       	movw	r18, r12
    179c:	85 01       	movw	r16, r10
    179e:	08 2b       	or	r16, r24
    17a0:	19 2b       	or	r17, r25
    17a2:	2a 2b       	or	r18, r26
    17a4:	3b 2b       	or	r19, r27
    17a6:	09 ab       	std	Y+49, r16	; 0x31
    17a8:	1a ab       	std	Y+50, r17	; 0x32
    17aa:	2b ab       	std	Y+51, r18	; 0x33
    17ac:	3c ab       	std	Y+52, r19	; 0x34
    17ae:	62 c2       	rjmp	.+1220   	; 0x1c74 <__udivdi3+0xcaa>
    17b0:	6e 14       	cp	r6, r14
    17b2:	7f 04       	cpc	r7, r15
    17b4:	80 06       	cpc	r8, r16
    17b6:	91 06       	cpc	r9, r17
    17b8:	08 f4       	brcc	.+2      	; 0x17bc <__udivdi3+0x7f2>
    17ba:	51 c2       	rjmp	.+1186   	; 0x1c5e <__udivdi3+0xc94>
    17bc:	20 e0       	ldi	r18, 0x00	; 0
    17be:	e2 16       	cp	r14, r18
    17c0:	20 e0       	ldi	r18, 0x00	; 0
    17c2:	f2 06       	cpc	r15, r18
    17c4:	21 e0       	ldi	r18, 0x01	; 1
    17c6:	02 07       	cpc	r16, r18
    17c8:	20 e0       	ldi	r18, 0x00	; 0
    17ca:	12 07       	cpc	r17, r18
    17cc:	88 f4       	brcc	.+34     	; 0x17f0 <__udivdi3+0x826>
    17ce:	3f ef       	ldi	r19, 0xFF	; 255
    17d0:	e3 16       	cp	r14, r19
    17d2:	f1 04       	cpc	r15, r1
    17d4:	01 05       	cpc	r16, r1
    17d6:	11 05       	cpc	r17, r1
    17d8:	31 f0       	breq	.+12     	; 0x17e6 <__udivdi3+0x81c>
    17da:	28 f0       	brcs	.+10     	; 0x17e6 <__udivdi3+0x81c>
    17dc:	48 e0       	ldi	r20, 0x08	; 8
    17de:	50 e0       	ldi	r21, 0x00	; 0
    17e0:	60 e0       	ldi	r22, 0x00	; 0
    17e2:	70 e0       	ldi	r23, 0x00	; 0
    17e4:	17 c0       	rjmp	.+46     	; 0x1814 <__udivdi3+0x84a>
    17e6:	40 e0       	ldi	r20, 0x00	; 0
    17e8:	50 e0       	ldi	r21, 0x00	; 0
    17ea:	60 e0       	ldi	r22, 0x00	; 0
    17ec:	70 e0       	ldi	r23, 0x00	; 0
    17ee:	12 c0       	rjmp	.+36     	; 0x1814 <__udivdi3+0x84a>
    17f0:	40 e0       	ldi	r20, 0x00	; 0
    17f2:	e4 16       	cp	r14, r20
    17f4:	40 e0       	ldi	r20, 0x00	; 0
    17f6:	f4 06       	cpc	r15, r20
    17f8:	40 e0       	ldi	r20, 0x00	; 0
    17fa:	04 07       	cpc	r16, r20
    17fc:	41 e0       	ldi	r20, 0x01	; 1
    17fe:	14 07       	cpc	r17, r20
    1800:	28 f0       	brcs	.+10     	; 0x180c <__udivdi3+0x842>
    1802:	48 e1       	ldi	r20, 0x18	; 24
    1804:	50 e0       	ldi	r21, 0x00	; 0
    1806:	60 e0       	ldi	r22, 0x00	; 0
    1808:	70 e0       	ldi	r23, 0x00	; 0
    180a:	04 c0       	rjmp	.+8      	; 0x1814 <__udivdi3+0x84a>
    180c:	40 e1       	ldi	r20, 0x10	; 16
    180e:	50 e0       	ldi	r21, 0x00	; 0
    1810:	60 e0       	ldi	r22, 0x00	; 0
    1812:	70 e0       	ldi	r23, 0x00	; 0
    1814:	d8 01       	movw	r26, r16
    1816:	c7 01       	movw	r24, r14
    1818:	04 2e       	mov	r0, r20
    181a:	04 c0       	rjmp	.+8      	; 0x1824 <__udivdi3+0x85a>
    181c:	b6 95       	lsr	r27
    181e:	a7 95       	ror	r26
    1820:	97 95       	ror	r25
    1822:	87 95       	ror	r24
    1824:	0a 94       	dec	r0
    1826:	d2 f7       	brpl	.-12     	; 0x181c <__udivdi3+0x852>
    1828:	8e 57       	subi	r24, 0x7E	; 126
    182a:	9f 4f       	sbci	r25, 0xFF	; 255
    182c:	dc 01       	movw	r26, r24
    182e:	2c 91       	ld	r18, X
    1830:	30 e2       	ldi	r19, 0x20	; 32
    1832:	a3 2e       	mov	r10, r19
    1834:	b1 2c       	mov	r11, r1
    1836:	c1 2c       	mov	r12, r1
    1838:	d1 2c       	mov	r13, r1
    183a:	d6 01       	movw	r26, r12
    183c:	c5 01       	movw	r24, r10
    183e:	84 1b       	sub	r24, r20
    1840:	95 0b       	sbc	r25, r21
    1842:	a6 0b       	sbc	r26, r22
    1844:	b7 0b       	sbc	r27, r23
    1846:	82 1b       	sub	r24, r18
    1848:	91 09       	sbc	r25, r1
    184a:	a1 09       	sbc	r26, r1
    184c:	b1 09       	sbc	r27, r1
    184e:	00 97       	sbiw	r24, 0x00	; 0
    1850:	a1 05       	cpc	r26, r1
    1852:	b1 05       	cpc	r27, r1
    1854:	89 f4       	brne	.+34     	; 0x1878 <__udivdi3+0x8ae>
    1856:	e6 14       	cp	r14, r6
    1858:	f7 04       	cpc	r15, r7
    185a:	08 05       	cpc	r16, r8
    185c:	19 05       	cpc	r17, r9
    185e:	08 f4       	brcc	.+2      	; 0x1862 <__udivdi3+0x898>
    1860:	f2 c1       	rjmp	.+996    	; 0x1c46 <__udivdi3+0xc7c>
    1862:	6d a4       	ldd	r6, Y+45	; 0x2d
    1864:	7e a4       	ldd	r7, Y+46	; 0x2e
    1866:	8f a4       	ldd	r8, Y+47	; 0x2f
    1868:	98 a8       	ldd	r9, Y+48	; 0x30
    186a:	62 14       	cp	r6, r2
    186c:	73 04       	cpc	r7, r3
    186e:	84 04       	cpc	r8, r4
    1870:	95 04       	cpc	r9, r5
    1872:	08 f0       	brcs	.+2      	; 0x1876 <__udivdi3+0x8ac>
    1874:	e8 c1       	rjmp	.+976    	; 0x1c46 <__udivdi3+0xc7c>
    1876:	f3 c1       	rjmp	.+998    	; 0x1c5e <__udivdi3+0xc94>
    1878:	6e 96       	adiw	r28, 0x1e	; 30
    187a:	8f af       	std	Y+63, r24	; 0x3f
    187c:	6e 97       	sbiw	r28, 0x1e	; 30
    187e:	08 2e       	mov	r0, r24
    1880:	04 c0       	rjmp	.+8      	; 0x188a <__udivdi3+0x8c0>
    1882:	ee 0c       	add	r14, r14
    1884:	ff 1c       	adc	r15, r15
    1886:	00 1f       	adc	r16, r16
    1888:	11 1f       	adc	r17, r17
    188a:	0a 94       	dec	r0
    188c:	d2 f7       	brpl	.-12     	; 0x1882 <__udivdi3+0x8b8>
    188e:	6a 2d       	mov	r22, r10
    1890:	68 1b       	sub	r22, r24
    1892:	d2 01       	movw	r26, r4
    1894:	c1 01       	movw	r24, r2
    1896:	06 2e       	mov	r0, r22
    1898:	04 c0       	rjmp	.+8      	; 0x18a2 <__udivdi3+0x8d8>
    189a:	b6 95       	lsr	r27
    189c:	a7 95       	ror	r26
    189e:	97 95       	ror	r25
    18a0:	87 95       	ror	r24
    18a2:	0a 94       	dec	r0
    18a4:	d2 f7       	brpl	.-12     	; 0x189a <__udivdi3+0x8d0>
    18a6:	5c 01       	movw	r10, r24
    18a8:	6d 01       	movw	r12, r26
    18aa:	ae 28       	or	r10, r14
    18ac:	bf 28       	or	r11, r15
    18ae:	c0 2a       	or	r12, r16
    18b0:	d1 2a       	or	r13, r17
    18b2:	ad a2       	std	Y+37, r10	; 0x25
    18b4:	be a2       	std	Y+38, r11	; 0x26
    18b6:	cf a2       	std	Y+39, r12	; 0x27
    18b8:	d8 a6       	std	Y+40, r13	; 0x28
    18ba:	72 01       	movw	r14, r4
    18bc:	61 01       	movw	r12, r2
    18be:	6e 96       	adiw	r28, 0x1e	; 30
    18c0:	0f ac       	ldd	r0, Y+63	; 0x3f
    18c2:	6e 97       	sbiw	r28, 0x1e	; 30
    18c4:	04 c0       	rjmp	.+8      	; 0x18ce <__udivdi3+0x904>
    18c6:	cc 0c       	add	r12, r12
    18c8:	dd 1c       	adc	r13, r13
    18ca:	ee 1c       	adc	r14, r14
    18cc:	ff 1c       	adc	r15, r15
    18ce:	0a 94       	dec	r0
    18d0:	d2 f7       	brpl	.-12     	; 0x18c6 <__udivdi3+0x8fc>
    18d2:	c9 a2       	std	Y+33, r12	; 0x21
    18d4:	da a2       	std	Y+34, r13	; 0x22
    18d6:	eb a2       	std	Y+35, r14	; 0x23
    18d8:	fc a2       	std	Y+36, r15	; 0x24
    18da:	64 01       	movw	r12, r8
    18dc:	53 01       	movw	r10, r6
    18de:	06 2e       	mov	r0, r22
    18e0:	04 c0       	rjmp	.+8      	; 0x18ea <__udivdi3+0x920>
    18e2:	d6 94       	lsr	r13
    18e4:	c7 94       	ror	r12
    18e6:	b7 94       	ror	r11
    18e8:	a7 94       	ror	r10
    18ea:	0a 94       	dec	r0
    18ec:	d2 f7       	brpl	.-12     	; 0x18e2 <__udivdi3+0x918>
    18ee:	d4 01       	movw	r26, r8
    18f0:	c3 01       	movw	r24, r6
    18f2:	6e 96       	adiw	r28, 0x1e	; 30
    18f4:	0f ac       	ldd	r0, Y+63	; 0x3f
    18f6:	6e 97       	sbiw	r28, 0x1e	; 30
    18f8:	04 c0       	rjmp	.+8      	; 0x1902 <__udivdi3+0x938>
    18fa:	88 0f       	add	r24, r24
    18fc:	99 1f       	adc	r25, r25
    18fe:	aa 1f       	adc	r26, r26
    1900:	bb 1f       	adc	r27, r27
    1902:	0a 94       	dec	r0
    1904:	d2 f7       	brpl	.-12     	; 0x18fa <__udivdi3+0x930>
    1906:	ed a4       	ldd	r14, Y+45	; 0x2d
    1908:	fe a4       	ldd	r15, Y+46	; 0x2e
    190a:	0f a5       	ldd	r16, Y+47	; 0x2f
    190c:	18 a9       	ldd	r17, Y+48	; 0x30
    190e:	04 c0       	rjmp	.+8      	; 0x1918 <__udivdi3+0x94e>
    1910:	16 95       	lsr	r17
    1912:	07 95       	ror	r16
    1914:	f7 94       	ror	r15
    1916:	e7 94       	ror	r14
    1918:	6a 95       	dec	r22
    191a:	d2 f7       	brpl	.-12     	; 0x1910 <__udivdi3+0x946>
    191c:	37 01       	movw	r6, r14
    191e:	48 01       	movw	r8, r16
    1920:	68 2a       	or	r6, r24
    1922:	79 2a       	or	r7, r25
    1924:	8a 2a       	or	r8, r26
    1926:	9b 2a       	or	r9, r27
    1928:	6d 8e       	std	Y+29, r6	; 0x1d
    192a:	7e 8e       	std	Y+30, r7	; 0x1e
    192c:	8f 8e       	std	Y+31, r8	; 0x1f
    192e:	98 a2       	std	Y+32, r9	; 0x20
    1930:	ed a0       	ldd	r14, Y+37	; 0x25
    1932:	fe a0       	ldd	r15, Y+38	; 0x26
    1934:	0f a1       	ldd	r16, Y+39	; 0x27
    1936:	18 a5       	ldd	r17, Y+40	; 0x28
    1938:	38 01       	movw	r6, r16
    193a:	88 24       	eor	r8, r8
    193c:	99 24       	eor	r9, r9
    193e:	98 01       	movw	r18, r16
    1940:	87 01       	movw	r16, r14
    1942:	20 70       	andi	r18, 0x00	; 0
    1944:	30 70       	andi	r19, 0x00	; 0
    1946:	65 96       	adiw	r28, 0x15	; 21
    1948:	0c af       	std	Y+60, r16	; 0x3c
    194a:	1d af       	std	Y+61, r17	; 0x3d
    194c:	2e af       	std	Y+62, r18	; 0x3e
    194e:	3f af       	std	Y+63, r19	; 0x3f
    1950:	65 97       	sbiw	r28, 0x15	; 21
    1952:	c6 01       	movw	r24, r12
    1954:	b5 01       	movw	r22, r10
    1956:	a4 01       	movw	r20, r8
    1958:	93 01       	movw	r18, r6
    195a:	0e 94 95 16 	call	0x2d2a	; 0x2d2a <__udivmodsi4>
    195e:	7b 01       	movw	r14, r22
    1960:	8c 01       	movw	r16, r24
    1962:	c6 01       	movw	r24, r12
    1964:	b5 01       	movw	r22, r10
    1966:	a4 01       	movw	r20, r8
    1968:	93 01       	movw	r18, r6
    196a:	0e 94 95 16 	call	0x2d2a	; 0x2d2a <__udivmodsi4>
    196e:	c9 01       	movw	r24, r18
    1970:	da 01       	movw	r26, r20
    1972:	1c 01       	movw	r2, r24
    1974:	2d 01       	movw	r4, r26
    1976:	c2 01       	movw	r24, r4
    1978:	b1 01       	movw	r22, r2
    197a:	65 96       	adiw	r28, 0x15	; 21
    197c:	2c ad       	ldd	r18, Y+60	; 0x3c
    197e:	3d ad       	ldd	r19, Y+61	; 0x3d
    1980:	4e ad       	ldd	r20, Y+62	; 0x3e
    1982:	5f ad       	ldd	r21, Y+63	; 0x3f
    1984:	65 97       	sbiw	r28, 0x15	; 21
    1986:	0e 94 62 16 	call	0x2cc4	; 0x2cc4 <__mulsi3>
    198a:	9b 01       	movw	r18, r22
    198c:	ac 01       	movw	r20, r24
    198e:	87 01       	movw	r16, r14
    1990:	ff 24       	eor	r15, r15
    1992:	ee 24       	eor	r14, r14
    1994:	ad 8c       	ldd	r10, Y+29	; 0x1d
    1996:	be 8c       	ldd	r11, Y+30	; 0x1e
    1998:	cf 8c       	ldd	r12, Y+31	; 0x1f
    199a:	d8 a0       	ldd	r13, Y+32	; 0x20
    199c:	c6 01       	movw	r24, r12
    199e:	aa 27       	eor	r26, r26
    19a0:	bb 27       	eor	r27, r27
    19a2:	57 01       	movw	r10, r14
    19a4:	68 01       	movw	r12, r16
    19a6:	a8 2a       	or	r10, r24
    19a8:	b9 2a       	or	r11, r25
    19aa:	ca 2a       	or	r12, r26
    19ac:	db 2a       	or	r13, r27
    19ae:	a2 16       	cp	r10, r18
    19b0:	b3 06       	cpc	r11, r19
    19b2:	c4 06       	cpc	r12, r20
    19b4:	d5 06       	cpc	r13, r21
    19b6:	00 f5       	brcc	.+64     	; 0x19f8 <__udivdi3+0xa2e>
    19b8:	08 94       	sec
    19ba:	21 08       	sbc	r2, r1
    19bc:	31 08       	sbc	r3, r1
    19be:	41 08       	sbc	r4, r1
    19c0:	51 08       	sbc	r5, r1
    19c2:	ed a0       	ldd	r14, Y+37	; 0x25
    19c4:	fe a0       	ldd	r15, Y+38	; 0x26
    19c6:	0f a1       	ldd	r16, Y+39	; 0x27
    19c8:	18 a5       	ldd	r17, Y+40	; 0x28
    19ca:	ae 0c       	add	r10, r14
    19cc:	bf 1c       	adc	r11, r15
    19ce:	c0 1e       	adc	r12, r16
    19d0:	d1 1e       	adc	r13, r17
    19d2:	ae 14       	cp	r10, r14
    19d4:	bf 04       	cpc	r11, r15
    19d6:	c0 06       	cpc	r12, r16
    19d8:	d1 06       	cpc	r13, r17
    19da:	70 f0       	brcs	.+28     	; 0x19f8 <__udivdi3+0xa2e>
    19dc:	a2 16       	cp	r10, r18
    19de:	b3 06       	cpc	r11, r19
    19e0:	c4 06       	cpc	r12, r20
    19e2:	d5 06       	cpc	r13, r21
    19e4:	48 f4       	brcc	.+18     	; 0x19f8 <__udivdi3+0xa2e>
    19e6:	08 94       	sec
    19e8:	21 08       	sbc	r2, r1
    19ea:	31 08       	sbc	r3, r1
    19ec:	41 08       	sbc	r4, r1
    19ee:	51 08       	sbc	r5, r1
    19f0:	ae 0c       	add	r10, r14
    19f2:	bf 1c       	adc	r11, r15
    19f4:	c0 1e       	adc	r12, r16
    19f6:	d1 1e       	adc	r13, r17
    19f8:	a2 1a       	sub	r10, r18
    19fa:	b3 0a       	sbc	r11, r19
    19fc:	c4 0a       	sbc	r12, r20
    19fe:	d5 0a       	sbc	r13, r21
    1a00:	c6 01       	movw	r24, r12
    1a02:	b5 01       	movw	r22, r10
    1a04:	a4 01       	movw	r20, r8
    1a06:	93 01       	movw	r18, r6
    1a08:	0e 94 95 16 	call	0x2d2a	; 0x2d2a <__udivmodsi4>
    1a0c:	7b 01       	movw	r14, r22
    1a0e:	8c 01       	movw	r16, r24
    1a10:	c6 01       	movw	r24, r12
    1a12:	b5 01       	movw	r22, r10
    1a14:	a4 01       	movw	r20, r8
    1a16:	93 01       	movw	r18, r6
    1a18:	0e 94 95 16 	call	0x2d2a	; 0x2d2a <__udivmodsi4>
    1a1c:	c9 01       	movw	r24, r18
    1a1e:	da 01       	movw	r26, r20
    1a20:	3c 01       	movw	r6, r24
    1a22:	4d 01       	movw	r8, r26
    1a24:	c4 01       	movw	r24, r8
    1a26:	b3 01       	movw	r22, r6
    1a28:	65 96       	adiw	r28, 0x15	; 21
    1a2a:	2c ad       	ldd	r18, Y+60	; 0x3c
    1a2c:	3d ad       	ldd	r19, Y+61	; 0x3d
    1a2e:	4e ad       	ldd	r20, Y+62	; 0x3e
    1a30:	5f ad       	ldd	r21, Y+63	; 0x3f
    1a32:	65 97       	sbiw	r28, 0x15	; 21
    1a34:	0e 94 62 16 	call	0x2cc4	; 0x2cc4 <__mulsi3>
    1a38:	9b 01       	movw	r18, r22
    1a3a:	ac 01       	movw	r20, r24
    1a3c:	87 01       	movw	r16, r14
    1a3e:	ff 24       	eor	r15, r15
    1a40:	ee 24       	eor	r14, r14
    1a42:	8d 8d       	ldd	r24, Y+29	; 0x1d
    1a44:	9e 8d       	ldd	r25, Y+30	; 0x1e
    1a46:	af 8d       	ldd	r26, Y+31	; 0x1f
    1a48:	b8 a1       	ldd	r27, Y+32	; 0x20
    1a4a:	a0 70       	andi	r26, 0x00	; 0
    1a4c:	b0 70       	andi	r27, 0x00	; 0
    1a4e:	57 01       	movw	r10, r14
    1a50:	68 01       	movw	r12, r16
    1a52:	a8 2a       	or	r10, r24
    1a54:	b9 2a       	or	r11, r25
    1a56:	ca 2a       	or	r12, r26
    1a58:	db 2a       	or	r13, r27
    1a5a:	a2 16       	cp	r10, r18
    1a5c:	b3 06       	cpc	r11, r19
    1a5e:	c4 06       	cpc	r12, r20
    1a60:	d5 06       	cpc	r13, r21
    1a62:	00 f5       	brcc	.+64     	; 0x1aa4 <__udivdi3+0xada>
    1a64:	08 94       	sec
    1a66:	61 08       	sbc	r6, r1
    1a68:	71 08       	sbc	r7, r1
    1a6a:	81 08       	sbc	r8, r1
    1a6c:	91 08       	sbc	r9, r1
    1a6e:	6d a1       	ldd	r22, Y+37	; 0x25
    1a70:	7e a1       	ldd	r23, Y+38	; 0x26
    1a72:	8f a1       	ldd	r24, Y+39	; 0x27
    1a74:	98 a5       	ldd	r25, Y+40	; 0x28
    1a76:	a6 0e       	add	r10, r22
    1a78:	b7 1e       	adc	r11, r23
    1a7a:	c8 1e       	adc	r12, r24
    1a7c:	d9 1e       	adc	r13, r25
    1a7e:	a6 16       	cp	r10, r22
    1a80:	b7 06       	cpc	r11, r23
    1a82:	c8 06       	cpc	r12, r24
    1a84:	d9 06       	cpc	r13, r25
    1a86:	70 f0       	brcs	.+28     	; 0x1aa4 <__udivdi3+0xada>
    1a88:	a2 16       	cp	r10, r18
    1a8a:	b3 06       	cpc	r11, r19
    1a8c:	c4 06       	cpc	r12, r20
    1a8e:	d5 06       	cpc	r13, r21
    1a90:	48 f4       	brcc	.+18     	; 0x1aa4 <__udivdi3+0xada>
    1a92:	08 94       	sec
    1a94:	61 08       	sbc	r6, r1
    1a96:	71 08       	sbc	r7, r1
    1a98:	81 08       	sbc	r8, r1
    1a9a:	91 08       	sbc	r9, r1
    1a9c:	a6 0e       	add	r10, r22
    1a9e:	b7 1e       	adc	r11, r23
    1aa0:	c8 1e       	adc	r12, r24
    1aa2:	d9 1e       	adc	r13, r25
    1aa4:	d6 01       	movw	r26, r12
    1aa6:	c5 01       	movw	r24, r10
    1aa8:	82 1b       	sub	r24, r18
    1aaa:	93 0b       	sbc	r25, r19
    1aac:	a4 0b       	sbc	r26, r20
    1aae:	b5 0b       	sbc	r27, r21
    1ab0:	89 8f       	std	Y+25, r24	; 0x19
    1ab2:	9a 8f       	std	Y+26, r25	; 0x1a
    1ab4:	ab 8f       	std	Y+27, r26	; 0x1b
    1ab6:	bc 8f       	std	Y+28, r27	; 0x1c
    1ab8:	d1 01       	movw	r26, r2
    1aba:	99 27       	eor	r25, r25
    1abc:	88 27       	eor	r24, r24
    1abe:	64 01       	movw	r12, r8
    1ac0:	53 01       	movw	r10, r6
    1ac2:	a8 2a       	or	r10, r24
    1ac4:	b9 2a       	or	r11, r25
    1ac6:	ca 2a       	or	r12, r26
    1ac8:	db 2a       	or	r13, r27
    1aca:	a9 aa       	std	Y+49, r10	; 0x31
    1acc:	ba aa       	std	Y+50, r11	; 0x32
    1ace:	cb aa       	std	Y+51, r12	; 0x33
    1ad0:	dc aa       	std	Y+52, r13	; 0x34
    1ad2:	86 01       	movw	r16, r12
    1ad4:	75 01       	movw	r14, r10
    1ad6:	2f ef       	ldi	r18, 0xFF	; 255
    1ad8:	3f ef       	ldi	r19, 0xFF	; 255
    1ada:	40 e0       	ldi	r20, 0x00	; 0
    1adc:	50 e0       	ldi	r21, 0x00	; 0
    1ade:	e2 22       	and	r14, r18
    1ae0:	f3 22       	and	r15, r19
    1ae2:	04 23       	and	r16, r20
    1ae4:	15 23       	and	r17, r21
    1ae6:	a6 01       	movw	r20, r12
    1ae8:	66 27       	eor	r22, r22
    1aea:	77 27       	eor	r23, r23
    1aec:	6d 96       	adiw	r28, 0x1d	; 29
    1aee:	4c af       	std	Y+60, r20	; 0x3c
    1af0:	5d af       	std	Y+61, r21	; 0x3d
    1af2:	6e af       	std	Y+62, r22	; 0x3e
    1af4:	7f af       	std	Y+63, r23	; 0x3f
    1af6:	6d 97       	sbiw	r28, 0x1d	; 29
    1af8:	a9 a0       	ldd	r10, Y+33	; 0x21
    1afa:	ba a0       	ldd	r11, Y+34	; 0x22
    1afc:	cb a0       	ldd	r12, Y+35	; 0x23
    1afe:	dc a0       	ldd	r13, Y+36	; 0x24
    1b00:	6f ef       	ldi	r22, 0xFF	; 255
    1b02:	7f ef       	ldi	r23, 0xFF	; 255
    1b04:	80 e0       	ldi	r24, 0x00	; 0
    1b06:	90 e0       	ldi	r25, 0x00	; 0
    1b08:	a6 22       	and	r10, r22
    1b0a:	b7 22       	and	r11, r23
    1b0c:	c8 22       	and	r12, r24
    1b0e:	d9 22       	and	r13, r25
    1b10:	89 a1       	ldd	r24, Y+33	; 0x21
    1b12:	9a a1       	ldd	r25, Y+34	; 0x22
    1b14:	ab a1       	ldd	r26, Y+35	; 0x23
    1b16:	bc a1       	ldd	r27, Y+36	; 0x24
    1b18:	1d 01       	movw	r2, r26
    1b1a:	44 24       	eor	r4, r4
    1b1c:	55 24       	eor	r5, r5
    1b1e:	c8 01       	movw	r24, r16
    1b20:	b7 01       	movw	r22, r14
    1b22:	a6 01       	movw	r20, r12
    1b24:	95 01       	movw	r18, r10
    1b26:	0e 94 62 16 	call	0x2cc4	; 0x2cc4 <__mulsi3>
    1b2a:	69 96       	adiw	r28, 0x19	; 25
    1b2c:	6c af       	std	Y+60, r22	; 0x3c
    1b2e:	7d af       	std	Y+61, r23	; 0x3d
    1b30:	8e af       	std	Y+62, r24	; 0x3e
    1b32:	9f af       	std	Y+63, r25	; 0x3f
    1b34:	69 97       	sbiw	r28, 0x19	; 25
    1b36:	c8 01       	movw	r24, r16
    1b38:	b7 01       	movw	r22, r14
    1b3a:	a2 01       	movw	r20, r4
    1b3c:	91 01       	movw	r18, r2
    1b3e:	0e 94 62 16 	call	0x2cc4	; 0x2cc4 <__mulsi3>
    1b42:	3b 01       	movw	r6, r22
    1b44:	4c 01       	movw	r8, r24
    1b46:	6d 96       	adiw	r28, 0x1d	; 29
    1b48:	6c ad       	ldd	r22, Y+60	; 0x3c
    1b4a:	7d ad       	ldd	r23, Y+61	; 0x3d
    1b4c:	8e ad       	ldd	r24, Y+62	; 0x3e
    1b4e:	9f ad       	ldd	r25, Y+63	; 0x3f
    1b50:	6d 97       	sbiw	r28, 0x1d	; 29
    1b52:	a6 01       	movw	r20, r12
    1b54:	95 01       	movw	r18, r10
    1b56:	0e 94 62 16 	call	0x2cc4	; 0x2cc4 <__mulsi3>
    1b5a:	7b 01       	movw	r14, r22
    1b5c:	8c 01       	movw	r16, r24
    1b5e:	6d 96       	adiw	r28, 0x1d	; 29
    1b60:	6c ad       	ldd	r22, Y+60	; 0x3c
    1b62:	7d ad       	ldd	r23, Y+61	; 0x3d
    1b64:	8e ad       	ldd	r24, Y+62	; 0x3e
    1b66:	9f ad       	ldd	r25, Y+63	; 0x3f
    1b68:	6d 97       	sbiw	r28, 0x1d	; 29
    1b6a:	a2 01       	movw	r20, r4
    1b6c:	91 01       	movw	r18, r2
    1b6e:	0e 94 62 16 	call	0x2cc4	; 0x2cc4 <__mulsi3>
    1b72:	5b 01       	movw	r10, r22
    1b74:	6c 01       	movw	r12, r24
    1b76:	a8 01       	movw	r20, r16
    1b78:	97 01       	movw	r18, r14
    1b7a:	26 0d       	add	r18, r6
    1b7c:	37 1d       	adc	r19, r7
    1b7e:	48 1d       	adc	r20, r8
    1b80:	59 1d       	adc	r21, r9
    1b82:	69 96       	adiw	r28, 0x19	; 25
    1b84:	6c ac       	ldd	r6, Y+60	; 0x3c
    1b86:	7d ac       	ldd	r7, Y+61	; 0x3d
    1b88:	8e ac       	ldd	r8, Y+62	; 0x3e
    1b8a:	9f ac       	ldd	r9, Y+63	; 0x3f
    1b8c:	69 97       	sbiw	r28, 0x19	; 25
    1b8e:	c4 01       	movw	r24, r8
    1b90:	aa 27       	eor	r26, r26
    1b92:	bb 27       	eor	r27, r27
    1b94:	28 0f       	add	r18, r24
    1b96:	39 1f       	adc	r19, r25
    1b98:	4a 1f       	adc	r20, r26
    1b9a:	5b 1f       	adc	r21, r27
    1b9c:	2e 15       	cp	r18, r14
    1b9e:	3f 05       	cpc	r19, r15
    1ba0:	40 07       	cpc	r20, r16
    1ba2:	51 07       	cpc	r21, r17
    1ba4:	48 f4       	brcc	.+18     	; 0x1bb8 <__udivdi3+0xbee>
    1ba6:	e1 2c       	mov	r14, r1
    1ba8:	f1 2c       	mov	r15, r1
    1baa:	61 e0       	ldi	r22, 0x01	; 1
    1bac:	06 2f       	mov	r16, r22
    1bae:	11 2d       	mov	r17, r1
    1bb0:	ae 0c       	add	r10, r14
    1bb2:	bf 1c       	adc	r11, r15
    1bb4:	c0 1e       	adc	r12, r16
    1bb6:	d1 1e       	adc	r13, r17
    1bb8:	ca 01       	movw	r24, r20
    1bba:	aa 27       	eor	r26, r26
    1bbc:	bb 27       	eor	r27, r27
    1bbe:	bc 01       	movw	r22, r24
    1bc0:	cd 01       	movw	r24, r26
    1bc2:	6a 0d       	add	r22, r10
    1bc4:	7b 1d       	adc	r23, r11
    1bc6:	8c 1d       	adc	r24, r12
    1bc8:	9d 1d       	adc	r25, r13
    1bca:	69 8c       	ldd	r6, Y+25	; 0x19
    1bcc:	7a 8c       	ldd	r7, Y+26	; 0x1a
    1bce:	8b 8c       	ldd	r8, Y+27	; 0x1b
    1bd0:	9c 8c       	ldd	r9, Y+28	; 0x1c
    1bd2:	66 16       	cp	r6, r22
    1bd4:	77 06       	cpc	r7, r23
    1bd6:	88 06       	cpc	r8, r24
    1bd8:	99 06       	cpc	r9, r25
    1bda:	40 f1       	brcs	.+80     	; 0x1c2c <__udivdi3+0xc62>
    1bdc:	66 15       	cp	r22, r6
    1bde:	77 05       	cpc	r23, r7
    1be0:	88 05       	cpc	r24, r8
    1be2:	99 05       	cpc	r25, r9
    1be4:	09 f0       	breq	.+2      	; 0x1be8 <__udivdi3+0xc1e>
    1be6:	43 c0       	rjmp	.+134    	; 0x1c6e <__udivdi3+0xca4>
    1be8:	d9 01       	movw	r26, r18
    1bea:	99 27       	eor	r25, r25
    1bec:	88 27       	eor	r24, r24
    1bee:	69 96       	adiw	r28, 0x19	; 25
    1bf0:	2c ad       	ldd	r18, Y+60	; 0x3c
    1bf2:	3d ad       	ldd	r19, Y+61	; 0x3d
    1bf4:	4e ad       	ldd	r20, Y+62	; 0x3e
    1bf6:	5f ad       	ldd	r21, Y+63	; 0x3f
    1bf8:	69 97       	sbiw	r28, 0x19	; 25
    1bfa:	40 70       	andi	r20, 0x00	; 0
    1bfc:	50 70       	andi	r21, 0x00	; 0
    1bfe:	82 0f       	add	r24, r18
    1c00:	93 1f       	adc	r25, r19
    1c02:	a4 1f       	adc	r26, r20
    1c04:	b5 1f       	adc	r27, r21
    1c06:	2d a5       	ldd	r18, Y+45	; 0x2d
    1c08:	3e a5       	ldd	r19, Y+46	; 0x2e
    1c0a:	4f a5       	ldd	r20, Y+47	; 0x2f
    1c0c:	58 a9       	ldd	r21, Y+48	; 0x30
    1c0e:	6e 96       	adiw	r28, 0x1e	; 30
    1c10:	0f ac       	ldd	r0, Y+63	; 0x3f
    1c12:	6e 97       	sbiw	r28, 0x1e	; 30
    1c14:	04 c0       	rjmp	.+8      	; 0x1c1e <__udivdi3+0xc54>
    1c16:	22 0f       	add	r18, r18
    1c18:	33 1f       	adc	r19, r19
    1c1a:	44 1f       	adc	r20, r20
    1c1c:	55 1f       	adc	r21, r21
    1c1e:	0a 94       	dec	r0
    1c20:	d2 f7       	brpl	.-12     	; 0x1c16 <__udivdi3+0xc4c>
    1c22:	28 17       	cp	r18, r24
    1c24:	39 07       	cpc	r19, r25
    1c26:	4a 07       	cpc	r20, r26
    1c28:	5b 07       	cpc	r21, r27
    1c2a:	08 f5       	brcc	.+66     	; 0x1c6e <__udivdi3+0xca4>
    1c2c:	09 a9       	ldd	r16, Y+49	; 0x31
    1c2e:	1a a9       	ldd	r17, Y+50	; 0x32
    1c30:	2b a9       	ldd	r18, Y+51	; 0x33
    1c32:	3c a9       	ldd	r19, Y+52	; 0x34
    1c34:	01 50       	subi	r16, 0x01	; 1
    1c36:	10 40       	sbci	r17, 0x00	; 0
    1c38:	20 40       	sbci	r18, 0x00	; 0
    1c3a:	30 40       	sbci	r19, 0x00	; 0
    1c3c:	09 ab       	std	Y+49, r16	; 0x31
    1c3e:	1a ab       	std	Y+50, r17	; 0x32
    1c40:	2b ab       	std	Y+51, r18	; 0x33
    1c42:	3c ab       	std	Y+52, r19	; 0x34
    1c44:	14 c0       	rjmp	.+40     	; 0x1c6e <__udivdi3+0xca4>
    1c46:	66 24       	eor	r6, r6
    1c48:	77 24       	eor	r7, r7
    1c4a:	43 01       	movw	r8, r6
    1c4c:	21 e0       	ldi	r18, 0x01	; 1
    1c4e:	30 e0       	ldi	r19, 0x00	; 0
    1c50:	40 e0       	ldi	r20, 0x00	; 0
    1c52:	50 e0       	ldi	r21, 0x00	; 0
    1c54:	29 ab       	std	Y+49, r18	; 0x31
    1c56:	3a ab       	std	Y+50, r19	; 0x32
    1c58:	4b ab       	std	Y+51, r20	; 0x33
    1c5a:	5c ab       	std	Y+52, r21	; 0x34
    1c5c:	0b c0       	rjmp	.+22     	; 0x1c74 <__udivdi3+0xcaa>
    1c5e:	66 24       	eor	r6, r6
    1c60:	77 24       	eor	r7, r7
    1c62:	43 01       	movw	r8, r6
    1c64:	19 aa       	std	Y+49, r1	; 0x31
    1c66:	1a aa       	std	Y+50, r1	; 0x32
    1c68:	1b aa       	std	Y+51, r1	; 0x33
    1c6a:	1c aa       	std	Y+52, r1	; 0x34
    1c6c:	03 c0       	rjmp	.+6      	; 0x1c74 <__udivdi3+0xcaa>
    1c6e:	66 24       	eor	r6, r6
    1c70:	77 24       	eor	r7, r7
    1c72:	43 01       	movw	r8, r6
    1c74:	fe 01       	movw	r30, r28
    1c76:	71 96       	adiw	r30, 0x11	; 17
    1c78:	88 e0       	ldi	r24, 0x08	; 8
    1c7a:	df 01       	movw	r26, r30
    1c7c:	1d 92       	st	X+, r1
    1c7e:	8a 95       	dec	r24
    1c80:	e9 f7       	brne	.-6      	; 0x1c7c <__udivdi3+0xcb2>
    1c82:	a9 a8       	ldd	r10, Y+49	; 0x31
    1c84:	ba a8       	ldd	r11, Y+50	; 0x32
    1c86:	cb a8       	ldd	r12, Y+51	; 0x33
    1c88:	dc a8       	ldd	r13, Y+52	; 0x34
    1c8a:	a9 8a       	std	Y+17, r10	; 0x11
    1c8c:	ba 8a       	std	Y+18, r11	; 0x12
    1c8e:	cb 8a       	std	Y+19, r12	; 0x13
    1c90:	dc 8a       	std	Y+20, r13	; 0x14
    1c92:	6d 8a       	std	Y+21, r6	; 0x15
    1c94:	7e 8a       	std	Y+22, r7	; 0x16
    1c96:	8f 8a       	std	Y+23, r8	; 0x17
    1c98:	98 8e       	std	Y+24, r9	; 0x18
    1c9a:	29 a9       	ldd	r18, Y+49	; 0x31
    1c9c:	3a 89       	ldd	r19, Y+18	; 0x12
    1c9e:	4b 89       	ldd	r20, Y+19	; 0x13
    1ca0:	5c 89       	ldd	r21, Y+20	; 0x14
    1ca2:	66 2d       	mov	r22, r6
    1ca4:	7e 89       	ldd	r23, Y+22	; 0x16
    1ca6:	8f 89       	ldd	r24, Y+23	; 0x17
    1ca8:	98 8d       	ldd	r25, Y+24	; 0x18
    1caa:	c2 5a       	subi	r28, 0xA2	; 162
    1cac:	df 4f       	sbci	r29, 0xFF	; 255
    1cae:	e2 e1       	ldi	r30, 0x12	; 18
    1cb0:	0c 94 d3 16 	jmp	0x2da6	; 0x2da6 <__epilogue_restores__>

00001cb4 <__umoddi3>:
    1cb4:	ab e5       	ldi	r26, 0x5B	; 91
    1cb6:	b0 e0       	ldi	r27, 0x00	; 0
    1cb8:	e0 e6       	ldi	r30, 0x60	; 96
    1cba:	fe e0       	ldi	r31, 0x0E	; 14
    1cbc:	0c 94 b7 16 	jmp	0x2d6e	; 0x2d6e <__prologue_saves__>
    1cc0:	a8 e0       	ldi	r26, 0x08	; 8
    1cc2:	4e 01       	movw	r8, r28
    1cc4:	08 94       	sec
    1cc6:	81 1c       	adc	r8, r1
    1cc8:	91 1c       	adc	r9, r1
    1cca:	f4 01       	movw	r30, r8
    1ccc:	6a 2e       	mov	r6, r26
    1cce:	11 92       	st	Z+, r1
    1cd0:	6a 94       	dec	r6
    1cd2:	e9 f7       	brne	.-6      	; 0x1cce <__umoddi3+0x1a>
    1cd4:	29 83       	std	Y+1, r18	; 0x01
    1cd6:	3a 83       	std	Y+2, r19	; 0x02
    1cd8:	4b 83       	std	Y+3, r20	; 0x03
    1cda:	5c 83       	std	Y+4, r21	; 0x04
    1cdc:	6d 83       	std	Y+5, r22	; 0x05
    1cde:	7e 83       	std	Y+6, r23	; 0x06
    1ce0:	8f 83       	std	Y+7, r24	; 0x07
    1ce2:	98 87       	std	Y+8, r25	; 0x08
    1ce4:	ce 01       	movw	r24, r28
    1ce6:	09 96       	adiw	r24, 0x09	; 9
    1ce8:	fc 01       	movw	r30, r24
    1cea:	11 92       	st	Z+, r1
    1cec:	aa 95       	dec	r26
    1cee:	e9 f7       	brne	.-6      	; 0x1cea <__umoddi3+0x36>
    1cf0:	a9 86       	std	Y+9, r10	; 0x09
    1cf2:	ba 86       	std	Y+10, r11	; 0x0a
    1cf4:	cb 86       	std	Y+11, r12	; 0x0b
    1cf6:	dc 86       	std	Y+12, r13	; 0x0c
    1cf8:	ed 86       	std	Y+13, r14	; 0x0d
    1cfa:	fe 86       	std	Y+14, r15	; 0x0e
    1cfc:	0f 87       	std	Y+15, r16	; 0x0f
    1cfe:	18 8b       	std	Y+16, r17	; 0x10
    1d00:	29 84       	ldd	r2, Y+9	; 0x09
    1d02:	3a 84       	ldd	r3, Y+10	; 0x0a
    1d04:	4b 84       	ldd	r4, Y+11	; 0x0b
    1d06:	5c 84       	ldd	r5, Y+12	; 0x0c
    1d08:	ad 84       	ldd	r10, Y+13	; 0x0d
    1d0a:	be 84       	ldd	r11, Y+14	; 0x0e
    1d0c:	cf 84       	ldd	r12, Y+15	; 0x0f
    1d0e:	d8 88       	ldd	r13, Y+16	; 0x10
    1d10:	29 81       	ldd	r18, Y+1	; 0x01
    1d12:	3a 81       	ldd	r19, Y+2	; 0x02
    1d14:	4b 81       	ldd	r20, Y+3	; 0x03
    1d16:	5c 81       	ldd	r21, Y+4	; 0x04
    1d18:	69 96       	adiw	r28, 0x19	; 25
    1d1a:	2f af       	std	Y+63, r18	; 0x3f
    1d1c:	69 97       	sbiw	r28, 0x19	; 25
    1d1e:	6a 96       	adiw	r28, 0x1a	; 26
    1d20:	3f af       	std	Y+63, r19	; 0x3f
    1d22:	6a 97       	sbiw	r28, 0x1a	; 26
    1d24:	6b 96       	adiw	r28, 0x1b	; 27
    1d26:	4f af       	std	Y+63, r20	; 0x3f
    1d28:	6b 97       	sbiw	r28, 0x1b	; 27
    1d2a:	6c 96       	adiw	r28, 0x1c	; 28
    1d2c:	5f af       	std	Y+63, r21	; 0x3f
    1d2e:	6c 97       	sbiw	r28, 0x1c	; 28
    1d30:	6c 96       	adiw	r28, 0x1c	; 28
    1d32:	6c ac       	ldd	r6, Y+60	; 0x3c
    1d34:	7d ac       	ldd	r7, Y+61	; 0x3d
    1d36:	8e ac       	ldd	r8, Y+62	; 0x3e
    1d38:	9f ac       	ldd	r9, Y+63	; 0x3f
    1d3a:	6c 97       	sbiw	r28, 0x1c	; 28
    1d3c:	69 aa       	std	Y+49, r6	; 0x31
    1d3e:	7a aa       	std	Y+50, r7	; 0x32
    1d40:	8b aa       	std	Y+51, r8	; 0x33
    1d42:	9c aa       	std	Y+52, r9	; 0x34
    1d44:	6d 81       	ldd	r22, Y+5	; 0x05
    1d46:	7e 81       	ldd	r23, Y+6	; 0x06
    1d48:	8f 81       	ldd	r24, Y+7	; 0x07
    1d4a:	98 85       	ldd	r25, Y+8	; 0x08
    1d4c:	3b 01       	movw	r6, r22
    1d4e:	4c 01       	movw	r8, r24
    1d50:	6d aa       	std	Y+53, r6	; 0x35
    1d52:	7e aa       	std	Y+54, r7	; 0x36
    1d54:	8f aa       	std	Y+55, r8	; 0x37
    1d56:	98 ae       	std	Y+56, r9	; 0x38
    1d58:	a1 14       	cp	r10, r1
    1d5a:	b1 04       	cpc	r11, r1
    1d5c:	c1 04       	cpc	r12, r1
    1d5e:	d1 04       	cpc	r13, r1
    1d60:	09 f0       	breq	.+2      	; 0x1d64 <__umoddi3+0xb0>
    1d62:	04 c3       	rjmp	.+1544   	; 0x236c <__umoddi3+0x6b8>
    1d64:	62 14       	cp	r6, r2
    1d66:	73 04       	cpc	r7, r3
    1d68:	84 04       	cpc	r8, r4
    1d6a:	95 04       	cpc	r9, r5
    1d6c:	08 f0       	brcs	.+2      	; 0x1d70 <__umoddi3+0xbc>
    1d6e:	00 c1       	rjmp	.+512    	; 0x1f70 <__umoddi3+0x2bc>
    1d70:	00 e0       	ldi	r16, 0x00	; 0
    1d72:	20 16       	cp	r2, r16
    1d74:	00 e0       	ldi	r16, 0x00	; 0
    1d76:	30 06       	cpc	r3, r16
    1d78:	01 e0       	ldi	r16, 0x01	; 1
    1d7a:	40 06       	cpc	r4, r16
    1d7c:	00 e0       	ldi	r16, 0x00	; 0
    1d7e:	50 06       	cpc	r5, r16
    1d80:	88 f4       	brcc	.+34     	; 0x1da4 <__umoddi3+0xf0>
    1d82:	1f ef       	ldi	r17, 0xFF	; 255
    1d84:	21 16       	cp	r2, r17
    1d86:	31 04       	cpc	r3, r1
    1d88:	41 04       	cpc	r4, r1
    1d8a:	51 04       	cpc	r5, r1
    1d8c:	39 f0       	breq	.+14     	; 0x1d9c <__umoddi3+0xe8>
    1d8e:	30 f0       	brcs	.+12     	; 0x1d9c <__umoddi3+0xe8>
    1d90:	88 e0       	ldi	r24, 0x08	; 8
    1d92:	e8 2e       	mov	r14, r24
    1d94:	f1 2c       	mov	r15, r1
    1d96:	01 2d       	mov	r16, r1
    1d98:	11 2d       	mov	r17, r1
    1d9a:	18 c0       	rjmp	.+48     	; 0x1dcc <__umoddi3+0x118>
    1d9c:	ee 24       	eor	r14, r14
    1d9e:	ff 24       	eor	r15, r15
    1da0:	87 01       	movw	r16, r14
    1da2:	14 c0       	rjmp	.+40     	; 0x1dcc <__umoddi3+0x118>
    1da4:	40 e0       	ldi	r20, 0x00	; 0
    1da6:	24 16       	cp	r2, r20
    1da8:	40 e0       	ldi	r20, 0x00	; 0
    1daa:	34 06       	cpc	r3, r20
    1dac:	40 e0       	ldi	r20, 0x00	; 0
    1dae:	44 06       	cpc	r4, r20
    1db0:	41 e0       	ldi	r20, 0x01	; 1
    1db2:	54 06       	cpc	r5, r20
    1db4:	30 f0       	brcs	.+12     	; 0x1dc2 <__umoddi3+0x10e>
    1db6:	b8 e1       	ldi	r27, 0x18	; 24
    1db8:	eb 2e       	mov	r14, r27
    1dba:	f1 2c       	mov	r15, r1
    1dbc:	01 2d       	mov	r16, r1
    1dbe:	11 2d       	mov	r17, r1
    1dc0:	05 c0       	rjmp	.+10     	; 0x1dcc <__umoddi3+0x118>
    1dc2:	a0 e1       	ldi	r26, 0x10	; 16
    1dc4:	ea 2e       	mov	r14, r26
    1dc6:	f1 2c       	mov	r15, r1
    1dc8:	01 2d       	mov	r16, r1
    1dca:	11 2d       	mov	r17, r1
    1dcc:	d2 01       	movw	r26, r4
    1dce:	c1 01       	movw	r24, r2
    1dd0:	0e 2c       	mov	r0, r14
    1dd2:	04 c0       	rjmp	.+8      	; 0x1ddc <__umoddi3+0x128>
    1dd4:	b6 95       	lsr	r27
    1dd6:	a7 95       	ror	r26
    1dd8:	97 95       	ror	r25
    1dda:	87 95       	ror	r24
    1ddc:	0a 94       	dec	r0
    1dde:	d2 f7       	brpl	.-12     	; 0x1dd4 <__umoddi3+0x120>
    1de0:	8e 57       	subi	r24, 0x7E	; 126
    1de2:	9f 4f       	sbci	r25, 0xFF	; 255
    1de4:	dc 01       	movw	r26, r24
    1de6:	2c 91       	ld	r18, X
    1de8:	80 e2       	ldi	r24, 0x20	; 32
    1dea:	90 e0       	ldi	r25, 0x00	; 0
    1dec:	a0 e0       	ldi	r26, 0x00	; 0
    1dee:	b0 e0       	ldi	r27, 0x00	; 0
    1df0:	8e 19       	sub	r24, r14
    1df2:	9f 09       	sbc	r25, r15
    1df4:	a0 0b       	sbc	r26, r16
    1df6:	b1 0b       	sbc	r27, r17
    1df8:	5c 01       	movw	r10, r24
    1dfa:	6d 01       	movw	r12, r26
    1dfc:	a2 1a       	sub	r10, r18
    1dfe:	b1 08       	sbc	r11, r1
    1e00:	c1 08       	sbc	r12, r1
    1e02:	d1 08       	sbc	r13, r1
    1e04:	a9 ae       	std	Y+57, r10	; 0x39
    1e06:	ba ae       	std	Y+58, r11	; 0x3a
    1e08:	cb ae       	std	Y+59, r12	; 0x3b
    1e0a:	dc ae       	std	Y+60, r13	; 0x3c
    1e0c:	a1 14       	cp	r10, r1
    1e0e:	b1 04       	cpc	r11, r1
    1e10:	c1 04       	cpc	r12, r1
    1e12:	d1 04       	cpc	r13, r1
    1e14:	09 f4       	brne	.+2      	; 0x1e18 <__umoddi3+0x164>
    1e16:	3f c0       	rjmp	.+126    	; 0x1e96 <__umoddi3+0x1e2>
    1e18:	69 ad       	ldd	r22, Y+57	; 0x39
    1e1a:	06 2e       	mov	r0, r22
    1e1c:	04 c0       	rjmp	.+8      	; 0x1e26 <__umoddi3+0x172>
    1e1e:	22 0c       	add	r2, r2
    1e20:	33 1c       	adc	r3, r3
    1e22:	44 1c       	adc	r4, r4
    1e24:	55 1c       	adc	r5, r5
    1e26:	0a 94       	dec	r0
    1e28:	d2 f7       	brpl	.-12     	; 0x1e1e <__umoddi3+0x16a>
    1e2a:	a4 01       	movw	r20, r8
    1e2c:	93 01       	movw	r18, r6
    1e2e:	06 2e       	mov	r0, r22
    1e30:	04 c0       	rjmp	.+8      	; 0x1e3a <__umoddi3+0x186>
    1e32:	22 0f       	add	r18, r18
    1e34:	33 1f       	adc	r19, r19
    1e36:	44 1f       	adc	r20, r20
    1e38:	55 1f       	adc	r21, r21
    1e3a:	0a 94       	dec	r0
    1e3c:	d2 f7       	brpl	.-12     	; 0x1e32 <__umoddi3+0x17e>
    1e3e:	80 e2       	ldi	r24, 0x20	; 32
    1e40:	90 e0       	ldi	r25, 0x00	; 0
    1e42:	8a 19       	sub	r24, r10
    1e44:	9b 09       	sbc	r25, r11
    1e46:	6c 96       	adiw	r28, 0x1c	; 28
    1e48:	cc ac       	ldd	r12, Y+60	; 0x3c
    1e4a:	dd ac       	ldd	r13, Y+61	; 0x3d
    1e4c:	ee ac       	ldd	r14, Y+62	; 0x3e
    1e4e:	ff ac       	ldd	r15, Y+63	; 0x3f
    1e50:	6c 97       	sbiw	r28, 0x1c	; 28
    1e52:	04 c0       	rjmp	.+8      	; 0x1e5c <__umoddi3+0x1a8>
    1e54:	f6 94       	lsr	r15
    1e56:	e7 94       	ror	r14
    1e58:	d7 94       	ror	r13
    1e5a:	c7 94       	ror	r12
    1e5c:	8a 95       	dec	r24
    1e5e:	d2 f7       	brpl	.-12     	; 0x1e54 <__umoddi3+0x1a0>
    1e60:	87 01       	movw	r16, r14
    1e62:	76 01       	movw	r14, r12
    1e64:	e2 2a       	or	r14, r18
    1e66:	f3 2a       	or	r15, r19
    1e68:	04 2b       	or	r16, r20
    1e6a:	15 2b       	or	r17, r21
    1e6c:	ed aa       	std	Y+53, r14	; 0x35
    1e6e:	fe aa       	std	Y+54, r15	; 0x36
    1e70:	0f ab       	std	Y+55, r16	; 0x37
    1e72:	18 af       	std	Y+56, r17	; 0x38
    1e74:	6c 96       	adiw	r28, 0x1c	; 28
    1e76:	8c ad       	ldd	r24, Y+60	; 0x3c
    1e78:	9d ad       	ldd	r25, Y+61	; 0x3d
    1e7a:	ae ad       	ldd	r26, Y+62	; 0x3e
    1e7c:	bf ad       	ldd	r27, Y+63	; 0x3f
    1e7e:	6c 97       	sbiw	r28, 0x1c	; 28
    1e80:	04 c0       	rjmp	.+8      	; 0x1e8a <__umoddi3+0x1d6>
    1e82:	88 0f       	add	r24, r24
    1e84:	99 1f       	adc	r25, r25
    1e86:	aa 1f       	adc	r26, r26
    1e88:	bb 1f       	adc	r27, r27
    1e8a:	6a 95       	dec	r22
    1e8c:	d2 f7       	brpl	.-12     	; 0x1e82 <__umoddi3+0x1ce>
    1e8e:	89 ab       	std	Y+49, r24	; 0x31
    1e90:	9a ab       	std	Y+50, r25	; 0x32
    1e92:	ab ab       	std	Y+51, r26	; 0x33
    1e94:	bc ab       	std	Y+52, r27	; 0x34
    1e96:	32 01       	movw	r6, r4
    1e98:	88 24       	eor	r8, r8
    1e9a:	99 24       	eor	r9, r9
    1e9c:	b2 01       	movw	r22, r4
    1e9e:	a1 01       	movw	r20, r2
    1ea0:	60 70       	andi	r22, 0x00	; 0
    1ea2:	70 70       	andi	r23, 0x00	; 0
    1ea4:	21 96       	adiw	r28, 0x01	; 1
    1ea6:	4c af       	std	Y+60, r20	; 0x3c
    1ea8:	5d af       	std	Y+61, r21	; 0x3d
    1eaa:	6e af       	std	Y+62, r22	; 0x3e
    1eac:	7f af       	std	Y+63, r23	; 0x3f
    1eae:	21 97       	sbiw	r28, 0x01	; 1
    1eb0:	6d a9       	ldd	r22, Y+53	; 0x35
    1eb2:	7e a9       	ldd	r23, Y+54	; 0x36
    1eb4:	8f a9       	ldd	r24, Y+55	; 0x37
    1eb6:	98 ad       	ldd	r25, Y+56	; 0x38
    1eb8:	a4 01       	movw	r20, r8
    1eba:	93 01       	movw	r18, r6
    1ebc:	0e 94 95 16 	call	0x2d2a	; 0x2d2a <__udivmodsi4>
    1ec0:	7b 01       	movw	r14, r22
    1ec2:	8c 01       	movw	r16, r24
    1ec4:	6d a9       	ldd	r22, Y+53	; 0x35
    1ec6:	7e a9       	ldd	r23, Y+54	; 0x36
    1ec8:	8f a9       	ldd	r24, Y+55	; 0x37
    1eca:	98 ad       	ldd	r25, Y+56	; 0x38
    1ecc:	a4 01       	movw	r20, r8
    1ece:	93 01       	movw	r18, r6
    1ed0:	0e 94 95 16 	call	0x2d2a	; 0x2d2a <__udivmodsi4>
    1ed4:	ca 01       	movw	r24, r20
    1ed6:	b9 01       	movw	r22, r18
    1ed8:	21 96       	adiw	r28, 0x01	; 1
    1eda:	2c ad       	ldd	r18, Y+60	; 0x3c
    1edc:	3d ad       	ldd	r19, Y+61	; 0x3d
    1ede:	4e ad       	ldd	r20, Y+62	; 0x3e
    1ee0:	5f ad       	ldd	r21, Y+63	; 0x3f
    1ee2:	21 97       	sbiw	r28, 0x01	; 1
    1ee4:	0e 94 62 16 	call	0x2cc4	; 0x2cc4 <__mulsi3>
    1ee8:	9b 01       	movw	r18, r22
    1eea:	ac 01       	movw	r20, r24
    1eec:	87 01       	movw	r16, r14
    1eee:	ff 24       	eor	r15, r15
    1ef0:	ee 24       	eor	r14, r14
    1ef2:	a9 a8       	ldd	r10, Y+49	; 0x31
    1ef4:	ba a8       	ldd	r11, Y+50	; 0x32
    1ef6:	cb a8       	ldd	r12, Y+51	; 0x33
    1ef8:	dc a8       	ldd	r13, Y+52	; 0x34
    1efa:	c6 01       	movw	r24, r12
    1efc:	aa 27       	eor	r26, r26
    1efe:	bb 27       	eor	r27, r27
    1f00:	57 01       	movw	r10, r14
    1f02:	68 01       	movw	r12, r16
    1f04:	a8 2a       	or	r10, r24
    1f06:	b9 2a       	or	r11, r25
    1f08:	ca 2a       	or	r12, r26
    1f0a:	db 2a       	or	r13, r27
    1f0c:	a2 16       	cp	r10, r18
    1f0e:	b3 06       	cpc	r11, r19
    1f10:	c4 06       	cpc	r12, r20
    1f12:	d5 06       	cpc	r13, r21
    1f14:	90 f4       	brcc	.+36     	; 0x1f3a <__umoddi3+0x286>
    1f16:	a2 0c       	add	r10, r2
    1f18:	b3 1c       	adc	r11, r3
    1f1a:	c4 1c       	adc	r12, r4
    1f1c:	d5 1c       	adc	r13, r5
    1f1e:	a2 14       	cp	r10, r2
    1f20:	b3 04       	cpc	r11, r3
    1f22:	c4 04       	cpc	r12, r4
    1f24:	d5 04       	cpc	r13, r5
    1f26:	48 f0       	brcs	.+18     	; 0x1f3a <__umoddi3+0x286>
    1f28:	a2 16       	cp	r10, r18
    1f2a:	b3 06       	cpc	r11, r19
    1f2c:	c4 06       	cpc	r12, r20
    1f2e:	d5 06       	cpc	r13, r21
    1f30:	20 f4       	brcc	.+8      	; 0x1f3a <__umoddi3+0x286>
    1f32:	a2 0c       	add	r10, r2
    1f34:	b3 1c       	adc	r11, r3
    1f36:	c4 1c       	adc	r12, r4
    1f38:	d5 1c       	adc	r13, r5
    1f3a:	a2 1a       	sub	r10, r18
    1f3c:	b3 0a       	sbc	r11, r19
    1f3e:	c4 0a       	sbc	r12, r20
    1f40:	d5 0a       	sbc	r13, r21
    1f42:	c6 01       	movw	r24, r12
    1f44:	b5 01       	movw	r22, r10
    1f46:	a4 01       	movw	r20, r8
    1f48:	93 01       	movw	r18, r6
    1f4a:	0e 94 95 16 	call	0x2d2a	; 0x2d2a <__udivmodsi4>
    1f4e:	7b 01       	movw	r14, r22
    1f50:	8c 01       	movw	r16, r24
    1f52:	c6 01       	movw	r24, r12
    1f54:	b5 01       	movw	r22, r10
    1f56:	a4 01       	movw	r20, r8
    1f58:	93 01       	movw	r18, r6
    1f5a:	0e 94 95 16 	call	0x2d2a	; 0x2d2a <__udivmodsi4>
    1f5e:	ca 01       	movw	r24, r20
    1f60:	b9 01       	movw	r22, r18
    1f62:	21 96       	adiw	r28, 0x01	; 1
    1f64:	2c ad       	ldd	r18, Y+60	; 0x3c
    1f66:	3d ad       	ldd	r19, Y+61	; 0x3d
    1f68:	4e ad       	ldd	r20, Y+62	; 0x3e
    1f6a:	5f ad       	ldd	r21, Y+63	; 0x3f
    1f6c:	21 97       	sbiw	r28, 0x01	; 1
    1f6e:	ba c1       	rjmp	.+884    	; 0x22e4 <__umoddi3+0x630>
    1f70:	21 14       	cp	r2, r1
    1f72:	31 04       	cpc	r3, r1
    1f74:	41 04       	cpc	r4, r1
    1f76:	51 04       	cpc	r5, r1
    1f78:	71 f4       	brne	.+28     	; 0x1f96 <__umoddi3+0x2e2>
    1f7a:	61 e0       	ldi	r22, 0x01	; 1
    1f7c:	70 e0       	ldi	r23, 0x00	; 0
    1f7e:	80 e0       	ldi	r24, 0x00	; 0
    1f80:	90 e0       	ldi	r25, 0x00	; 0
    1f82:	20 e0       	ldi	r18, 0x00	; 0
    1f84:	30 e0       	ldi	r19, 0x00	; 0
    1f86:	40 e0       	ldi	r20, 0x00	; 0
    1f88:	50 e0       	ldi	r21, 0x00	; 0
    1f8a:	0e 94 95 16 	call	0x2d2a	; 0x2d2a <__udivmodsi4>
    1f8e:	c9 01       	movw	r24, r18
    1f90:	da 01       	movw	r26, r20
    1f92:	1c 01       	movw	r2, r24
    1f94:	2d 01       	movw	r4, r26
    1f96:	00 e0       	ldi	r16, 0x00	; 0
    1f98:	20 16       	cp	r2, r16
    1f9a:	00 e0       	ldi	r16, 0x00	; 0
    1f9c:	30 06       	cpc	r3, r16
    1f9e:	01 e0       	ldi	r16, 0x01	; 1
    1fa0:	40 06       	cpc	r4, r16
    1fa2:	00 e0       	ldi	r16, 0x00	; 0
    1fa4:	50 06       	cpc	r5, r16
    1fa6:	88 f4       	brcc	.+34     	; 0x1fca <__umoddi3+0x316>
    1fa8:	1f ef       	ldi	r17, 0xFF	; 255
    1faa:	21 16       	cp	r2, r17
    1fac:	31 04       	cpc	r3, r1
    1fae:	41 04       	cpc	r4, r1
    1fb0:	51 04       	cpc	r5, r1
    1fb2:	39 f0       	breq	.+14     	; 0x1fc2 <__umoddi3+0x30e>
    1fb4:	30 f0       	brcs	.+12     	; 0x1fc2 <__umoddi3+0x30e>
    1fb6:	68 e0       	ldi	r22, 0x08	; 8
    1fb8:	e6 2e       	mov	r14, r22
    1fba:	f1 2c       	mov	r15, r1
    1fbc:	01 2d       	mov	r16, r1
    1fbe:	11 2d       	mov	r17, r1
    1fc0:	18 c0       	rjmp	.+48     	; 0x1ff2 <__umoddi3+0x33e>
    1fc2:	ee 24       	eor	r14, r14
    1fc4:	ff 24       	eor	r15, r15
    1fc6:	87 01       	movw	r16, r14
    1fc8:	14 c0       	rjmp	.+40     	; 0x1ff2 <__umoddi3+0x33e>
    1fca:	40 e0       	ldi	r20, 0x00	; 0
    1fcc:	24 16       	cp	r2, r20
    1fce:	40 e0       	ldi	r20, 0x00	; 0
    1fd0:	34 06       	cpc	r3, r20
    1fd2:	40 e0       	ldi	r20, 0x00	; 0
    1fd4:	44 06       	cpc	r4, r20
    1fd6:	41 e0       	ldi	r20, 0x01	; 1
    1fd8:	54 06       	cpc	r5, r20
    1fda:	30 f0       	brcs	.+12     	; 0x1fe8 <__umoddi3+0x334>
    1fdc:	58 e1       	ldi	r21, 0x18	; 24
    1fde:	e5 2e       	mov	r14, r21
    1fe0:	f1 2c       	mov	r15, r1
    1fe2:	01 2d       	mov	r16, r1
    1fe4:	11 2d       	mov	r17, r1
    1fe6:	05 c0       	rjmp	.+10     	; 0x1ff2 <__umoddi3+0x33e>
    1fe8:	40 e1       	ldi	r20, 0x10	; 16
    1fea:	e4 2e       	mov	r14, r20
    1fec:	f1 2c       	mov	r15, r1
    1fee:	01 2d       	mov	r16, r1
    1ff0:	11 2d       	mov	r17, r1
    1ff2:	d2 01       	movw	r26, r4
    1ff4:	c1 01       	movw	r24, r2
    1ff6:	0e 2c       	mov	r0, r14
    1ff8:	04 c0       	rjmp	.+8      	; 0x2002 <__umoddi3+0x34e>
    1ffa:	b6 95       	lsr	r27
    1ffc:	a7 95       	ror	r26
    1ffe:	97 95       	ror	r25
    2000:	87 95       	ror	r24
    2002:	0a 94       	dec	r0
    2004:	d2 f7       	brpl	.-12     	; 0x1ffa <__umoddi3+0x346>
    2006:	8e 57       	subi	r24, 0x7E	; 126
    2008:	9f 4f       	sbci	r25, 0xFF	; 255
    200a:	dc 01       	movw	r26, r24
    200c:	2c 91       	ld	r18, X
    200e:	30 e2       	ldi	r19, 0x20	; 32
    2010:	a3 2e       	mov	r10, r19
    2012:	b1 2c       	mov	r11, r1
    2014:	c1 2c       	mov	r12, r1
    2016:	d1 2c       	mov	r13, r1
    2018:	d6 01       	movw	r26, r12
    201a:	c5 01       	movw	r24, r10
    201c:	8e 19       	sub	r24, r14
    201e:	9f 09       	sbc	r25, r15
    2020:	a0 0b       	sbc	r26, r16
    2022:	b1 0b       	sbc	r27, r17
    2024:	7c 01       	movw	r14, r24
    2026:	8d 01       	movw	r16, r26
    2028:	e2 1a       	sub	r14, r18
    202a:	f1 08       	sbc	r15, r1
    202c:	01 09       	sbc	r16, r1
    202e:	11 09       	sbc	r17, r1
    2030:	e9 ae       	std	Y+57, r14	; 0x39
    2032:	fa ae       	std	Y+58, r15	; 0x3a
    2034:	0b af       	std	Y+59, r16	; 0x3b
    2036:	1c af       	std	Y+60, r17	; 0x3c
    2038:	e1 14       	cp	r14, r1
    203a:	f1 04       	cpc	r15, r1
    203c:	01 05       	cpc	r16, r1
    203e:	11 05       	cpc	r17, r1
    2040:	39 f4       	brne	.+14     	; 0x2050 <__umoddi3+0x39c>
    2042:	64 01       	movw	r12, r8
    2044:	53 01       	movw	r10, r6
    2046:	a2 18       	sub	r10, r2
    2048:	b3 08       	sbc	r11, r3
    204a:	c4 08       	sbc	r12, r4
    204c:	d5 08       	sbc	r13, r5
    204e:	e2 c0       	rjmp	.+452    	; 0x2214 <__umoddi3+0x560>
    2050:	f9 ac       	ldd	r15, Y+57	; 0x39
    2052:	68 96       	adiw	r28, 0x18	; 24
    2054:	ff ae       	std	Y+63, r15	; 0x3f
    2056:	68 97       	sbiw	r28, 0x18	; 24
    2058:	0f 2c       	mov	r0, r15
    205a:	04 c0       	rjmp	.+8      	; 0x2064 <__umoddi3+0x3b0>
    205c:	22 0c       	add	r2, r2
    205e:	33 1c       	adc	r3, r3
    2060:	44 1c       	adc	r4, r4
    2062:	55 1c       	adc	r5, r5
    2064:	0a 94       	dec	r0
    2066:	d2 f7       	brpl	.-12     	; 0x205c <__umoddi3+0x3a8>
    2068:	8a 2d       	mov	r24, r10
    206a:	8f 19       	sub	r24, r15
    206c:	64 01       	movw	r12, r8
    206e:	53 01       	movw	r10, r6
    2070:	08 2e       	mov	r0, r24
    2072:	04 c0       	rjmp	.+8      	; 0x207c <__umoddi3+0x3c8>
    2074:	d6 94       	lsr	r13
    2076:	c7 94       	ror	r12
    2078:	b7 94       	ror	r11
    207a:	a7 94       	ror	r10
    207c:	0a 94       	dec	r0
    207e:	d2 f7       	brpl	.-12     	; 0x2074 <__umoddi3+0x3c0>
    2080:	a4 01       	movw	r20, r8
    2082:	93 01       	movw	r18, r6
    2084:	04 c0       	rjmp	.+8      	; 0x208e <__umoddi3+0x3da>
    2086:	22 0f       	add	r18, r18
    2088:	33 1f       	adc	r19, r19
    208a:	44 1f       	adc	r20, r20
    208c:	55 1f       	adc	r21, r21
    208e:	fa 94       	dec	r15
    2090:	d2 f7       	brpl	.-12     	; 0x2086 <__umoddi3+0x3d2>
    2092:	6c 96       	adiw	r28, 0x1c	; 28
    2094:	6c ac       	ldd	r6, Y+60	; 0x3c
    2096:	7d ac       	ldd	r7, Y+61	; 0x3d
    2098:	8e ac       	ldd	r8, Y+62	; 0x3e
    209a:	9f ac       	ldd	r9, Y+63	; 0x3f
    209c:	6c 97       	sbiw	r28, 0x1c	; 28
    209e:	04 c0       	rjmp	.+8      	; 0x20a8 <__umoddi3+0x3f4>
    20a0:	96 94       	lsr	r9
    20a2:	87 94       	ror	r8
    20a4:	77 94       	ror	r7
    20a6:	67 94       	ror	r6
    20a8:	8a 95       	dec	r24
    20aa:	d2 f7       	brpl	.-12     	; 0x20a0 <__umoddi3+0x3ec>
    20ac:	84 01       	movw	r16, r8
    20ae:	73 01       	movw	r14, r6
    20b0:	e2 2a       	or	r14, r18
    20b2:	f3 2a       	or	r15, r19
    20b4:	04 2b       	or	r16, r20
    20b6:	15 2b       	or	r17, r21
    20b8:	ed a6       	std	Y+45, r14	; 0x2d
    20ba:	fe a6       	std	Y+46, r15	; 0x2e
    20bc:	0f a7       	std	Y+47, r16	; 0x2f
    20be:	18 ab       	std	Y+48, r17	; 0x30
    20c0:	32 01       	movw	r6, r4
    20c2:	88 24       	eor	r8, r8
    20c4:	99 24       	eor	r9, r9
    20c6:	b2 01       	movw	r22, r4
    20c8:	a1 01       	movw	r20, r2
    20ca:	60 70       	andi	r22, 0x00	; 0
    20cc:	70 70       	andi	r23, 0x00	; 0
    20ce:	25 96       	adiw	r28, 0x05	; 5
    20d0:	4c af       	std	Y+60, r20	; 0x3c
    20d2:	5d af       	std	Y+61, r21	; 0x3d
    20d4:	6e af       	std	Y+62, r22	; 0x3e
    20d6:	7f af       	std	Y+63, r23	; 0x3f
    20d8:	25 97       	sbiw	r28, 0x05	; 5
    20da:	c6 01       	movw	r24, r12
    20dc:	b5 01       	movw	r22, r10
    20de:	a4 01       	movw	r20, r8
    20e0:	93 01       	movw	r18, r6
    20e2:	0e 94 95 16 	call	0x2d2a	; 0x2d2a <__udivmodsi4>
    20e6:	7b 01       	movw	r14, r22
    20e8:	8c 01       	movw	r16, r24
    20ea:	c6 01       	movw	r24, r12
    20ec:	b5 01       	movw	r22, r10
    20ee:	a4 01       	movw	r20, r8
    20f0:	93 01       	movw	r18, r6
    20f2:	0e 94 95 16 	call	0x2d2a	; 0x2d2a <__udivmodsi4>
    20f6:	ca 01       	movw	r24, r20
    20f8:	b9 01       	movw	r22, r18
    20fa:	25 96       	adiw	r28, 0x05	; 5
    20fc:	2c ad       	ldd	r18, Y+60	; 0x3c
    20fe:	3d ad       	ldd	r19, Y+61	; 0x3d
    2100:	4e ad       	ldd	r20, Y+62	; 0x3e
    2102:	5f ad       	ldd	r21, Y+63	; 0x3f
    2104:	25 97       	sbiw	r28, 0x05	; 5
    2106:	0e 94 62 16 	call	0x2cc4	; 0x2cc4 <__mulsi3>
    210a:	9b 01       	movw	r18, r22
    210c:	ac 01       	movw	r20, r24
    210e:	87 01       	movw	r16, r14
    2110:	ff 24       	eor	r15, r15
    2112:	ee 24       	eor	r14, r14
    2114:	ad a4       	ldd	r10, Y+45	; 0x2d
    2116:	be a4       	ldd	r11, Y+46	; 0x2e
    2118:	cf a4       	ldd	r12, Y+47	; 0x2f
    211a:	d8 a8       	ldd	r13, Y+48	; 0x30
    211c:	c6 01       	movw	r24, r12
    211e:	aa 27       	eor	r26, r26
    2120:	bb 27       	eor	r27, r27
    2122:	5c 01       	movw	r10, r24
    2124:	6d 01       	movw	r12, r26
    2126:	ae 28       	or	r10, r14
    2128:	bf 28       	or	r11, r15
    212a:	c0 2a       	or	r12, r16
    212c:	d1 2a       	or	r13, r17
    212e:	a2 16       	cp	r10, r18
    2130:	b3 06       	cpc	r11, r19
    2132:	c4 06       	cpc	r12, r20
    2134:	d5 06       	cpc	r13, r21
    2136:	90 f4       	brcc	.+36     	; 0x215c <__umoddi3+0x4a8>
    2138:	a2 0c       	add	r10, r2
    213a:	b3 1c       	adc	r11, r3
    213c:	c4 1c       	adc	r12, r4
    213e:	d5 1c       	adc	r13, r5
    2140:	a2 14       	cp	r10, r2
    2142:	b3 04       	cpc	r11, r3
    2144:	c4 04       	cpc	r12, r4
    2146:	d5 04       	cpc	r13, r5
    2148:	48 f0       	brcs	.+18     	; 0x215c <__umoddi3+0x4a8>
    214a:	a2 16       	cp	r10, r18
    214c:	b3 06       	cpc	r11, r19
    214e:	c4 06       	cpc	r12, r20
    2150:	d5 06       	cpc	r13, r21
    2152:	20 f4       	brcc	.+8      	; 0x215c <__umoddi3+0x4a8>
    2154:	a2 0c       	add	r10, r2
    2156:	b3 1c       	adc	r11, r3
    2158:	c4 1c       	adc	r12, r4
    215a:	d5 1c       	adc	r13, r5
    215c:	a2 1a       	sub	r10, r18
    215e:	b3 0a       	sbc	r11, r19
    2160:	c4 0a       	sbc	r12, r20
    2162:	d5 0a       	sbc	r13, r21
    2164:	c6 01       	movw	r24, r12
    2166:	b5 01       	movw	r22, r10
    2168:	a4 01       	movw	r20, r8
    216a:	93 01       	movw	r18, r6
    216c:	0e 94 95 16 	call	0x2d2a	; 0x2d2a <__udivmodsi4>
    2170:	7b 01       	movw	r14, r22
    2172:	8c 01       	movw	r16, r24
    2174:	c6 01       	movw	r24, r12
    2176:	b5 01       	movw	r22, r10
    2178:	a4 01       	movw	r20, r8
    217a:	93 01       	movw	r18, r6
    217c:	0e 94 95 16 	call	0x2d2a	; 0x2d2a <__udivmodsi4>
    2180:	ca 01       	movw	r24, r20
    2182:	b9 01       	movw	r22, r18
    2184:	25 96       	adiw	r28, 0x05	; 5
    2186:	2c ad       	ldd	r18, Y+60	; 0x3c
    2188:	3d ad       	ldd	r19, Y+61	; 0x3d
    218a:	4e ad       	ldd	r20, Y+62	; 0x3e
    218c:	5f ad       	ldd	r21, Y+63	; 0x3f
    218e:	25 97       	sbiw	r28, 0x05	; 5
    2190:	0e 94 62 16 	call	0x2cc4	; 0x2cc4 <__mulsi3>
    2194:	9b 01       	movw	r18, r22
    2196:	ac 01       	movw	r20, r24
    2198:	87 01       	movw	r16, r14
    219a:	ff 24       	eor	r15, r15
    219c:	ee 24       	eor	r14, r14
    219e:	8d a5       	ldd	r24, Y+45	; 0x2d
    21a0:	9e a5       	ldd	r25, Y+46	; 0x2e
    21a2:	af a5       	ldd	r26, Y+47	; 0x2f
    21a4:	b8 a9       	ldd	r27, Y+48	; 0x30
    21a6:	a0 70       	andi	r26, 0x00	; 0
    21a8:	b0 70       	andi	r27, 0x00	; 0
    21aa:	57 01       	movw	r10, r14
    21ac:	68 01       	movw	r12, r16
    21ae:	a8 2a       	or	r10, r24
    21b0:	b9 2a       	or	r11, r25
    21b2:	ca 2a       	or	r12, r26
    21b4:	db 2a       	or	r13, r27
    21b6:	a2 16       	cp	r10, r18
    21b8:	b3 06       	cpc	r11, r19
    21ba:	c4 06       	cpc	r12, r20
    21bc:	d5 06       	cpc	r13, r21
    21be:	90 f4       	brcc	.+36     	; 0x21e4 <__umoddi3+0x530>
    21c0:	a2 0c       	add	r10, r2
    21c2:	b3 1c       	adc	r11, r3
    21c4:	c4 1c       	adc	r12, r4
    21c6:	d5 1c       	adc	r13, r5
    21c8:	a2 14       	cp	r10, r2
    21ca:	b3 04       	cpc	r11, r3
    21cc:	c4 04       	cpc	r12, r4
    21ce:	d5 04       	cpc	r13, r5
    21d0:	48 f0       	brcs	.+18     	; 0x21e4 <__umoddi3+0x530>
    21d2:	a2 16       	cp	r10, r18
    21d4:	b3 06       	cpc	r11, r19
    21d6:	c4 06       	cpc	r12, r20
    21d8:	d5 06       	cpc	r13, r21
    21da:	20 f4       	brcc	.+8      	; 0x21e4 <__umoddi3+0x530>
    21dc:	a2 0c       	add	r10, r2
    21de:	b3 1c       	adc	r11, r3
    21e0:	c4 1c       	adc	r12, r4
    21e2:	d5 1c       	adc	r13, r5
    21e4:	6c 96       	adiw	r28, 0x1c	; 28
    21e6:	ec ac       	ldd	r14, Y+60	; 0x3c
    21e8:	fd ac       	ldd	r15, Y+61	; 0x3d
    21ea:	0e ad       	ldd	r16, Y+62	; 0x3e
    21ec:	1f ad       	ldd	r17, Y+63	; 0x3f
    21ee:	6c 97       	sbiw	r28, 0x1c	; 28
    21f0:	68 96       	adiw	r28, 0x18	; 24
    21f2:	0f ac       	ldd	r0, Y+63	; 0x3f
    21f4:	68 97       	sbiw	r28, 0x18	; 24
    21f6:	04 c0       	rjmp	.+8      	; 0x2200 <__umoddi3+0x54c>
    21f8:	ee 0c       	add	r14, r14
    21fa:	ff 1c       	adc	r15, r15
    21fc:	00 1f       	adc	r16, r16
    21fe:	11 1f       	adc	r17, r17
    2200:	0a 94       	dec	r0
    2202:	d2 f7       	brpl	.-12     	; 0x21f8 <__umoddi3+0x544>
    2204:	e9 aa       	std	Y+49, r14	; 0x31
    2206:	fa aa       	std	Y+50, r15	; 0x32
    2208:	0b ab       	std	Y+51, r16	; 0x33
    220a:	1c ab       	std	Y+52, r17	; 0x34
    220c:	a2 1a       	sub	r10, r18
    220e:	b3 0a       	sbc	r11, r19
    2210:	c4 0a       	sbc	r12, r20
    2212:	d5 0a       	sbc	r13, r21
    2214:	32 01       	movw	r6, r4
    2216:	88 24       	eor	r8, r8
    2218:	99 24       	eor	r9, r9
    221a:	b2 01       	movw	r22, r4
    221c:	a1 01       	movw	r20, r2
    221e:	60 70       	andi	r22, 0x00	; 0
    2220:	70 70       	andi	r23, 0x00	; 0
    2222:	29 96       	adiw	r28, 0x09	; 9
    2224:	4c af       	std	Y+60, r20	; 0x3c
    2226:	5d af       	std	Y+61, r21	; 0x3d
    2228:	6e af       	std	Y+62, r22	; 0x3e
    222a:	7f af       	std	Y+63, r23	; 0x3f
    222c:	29 97       	sbiw	r28, 0x09	; 9
    222e:	c6 01       	movw	r24, r12
    2230:	b5 01       	movw	r22, r10
    2232:	a4 01       	movw	r20, r8
    2234:	93 01       	movw	r18, r6
    2236:	0e 94 95 16 	call	0x2d2a	; 0x2d2a <__udivmodsi4>
    223a:	7b 01       	movw	r14, r22
    223c:	8c 01       	movw	r16, r24
    223e:	c6 01       	movw	r24, r12
    2240:	b5 01       	movw	r22, r10
    2242:	a4 01       	movw	r20, r8
    2244:	93 01       	movw	r18, r6
    2246:	0e 94 95 16 	call	0x2d2a	; 0x2d2a <__udivmodsi4>
    224a:	ca 01       	movw	r24, r20
    224c:	b9 01       	movw	r22, r18
    224e:	29 96       	adiw	r28, 0x09	; 9
    2250:	2c ad       	ldd	r18, Y+60	; 0x3c
    2252:	3d ad       	ldd	r19, Y+61	; 0x3d
    2254:	4e ad       	ldd	r20, Y+62	; 0x3e
    2256:	5f ad       	ldd	r21, Y+63	; 0x3f
    2258:	29 97       	sbiw	r28, 0x09	; 9
    225a:	0e 94 62 16 	call	0x2cc4	; 0x2cc4 <__mulsi3>
    225e:	9b 01       	movw	r18, r22
    2260:	ac 01       	movw	r20, r24
    2262:	87 01       	movw	r16, r14
    2264:	ff 24       	eor	r15, r15
    2266:	ee 24       	eor	r14, r14
    2268:	a9 a8       	ldd	r10, Y+49	; 0x31
    226a:	ba a8       	ldd	r11, Y+50	; 0x32
    226c:	cb a8       	ldd	r12, Y+51	; 0x33
    226e:	dc a8       	ldd	r13, Y+52	; 0x34
    2270:	c6 01       	movw	r24, r12
    2272:	aa 27       	eor	r26, r26
    2274:	bb 27       	eor	r27, r27
    2276:	57 01       	movw	r10, r14
    2278:	68 01       	movw	r12, r16
    227a:	a8 2a       	or	r10, r24
    227c:	b9 2a       	or	r11, r25
    227e:	ca 2a       	or	r12, r26
    2280:	db 2a       	or	r13, r27
    2282:	a2 16       	cp	r10, r18
    2284:	b3 06       	cpc	r11, r19
    2286:	c4 06       	cpc	r12, r20
    2288:	d5 06       	cpc	r13, r21
    228a:	90 f4       	brcc	.+36     	; 0x22b0 <__umoddi3+0x5fc>
    228c:	a2 0c       	add	r10, r2
    228e:	b3 1c       	adc	r11, r3
    2290:	c4 1c       	adc	r12, r4
    2292:	d5 1c       	adc	r13, r5
    2294:	a2 14       	cp	r10, r2
    2296:	b3 04       	cpc	r11, r3
    2298:	c4 04       	cpc	r12, r4
    229a:	d5 04       	cpc	r13, r5
    229c:	48 f0       	brcs	.+18     	; 0x22b0 <__umoddi3+0x5fc>
    229e:	a2 16       	cp	r10, r18
    22a0:	b3 06       	cpc	r11, r19
    22a2:	c4 06       	cpc	r12, r20
    22a4:	d5 06       	cpc	r13, r21
    22a6:	20 f4       	brcc	.+8      	; 0x22b0 <__umoddi3+0x5fc>
    22a8:	a2 0c       	add	r10, r2
    22aa:	b3 1c       	adc	r11, r3
    22ac:	c4 1c       	adc	r12, r4
    22ae:	d5 1c       	adc	r13, r5
    22b0:	a2 1a       	sub	r10, r18
    22b2:	b3 0a       	sbc	r11, r19
    22b4:	c4 0a       	sbc	r12, r20
    22b6:	d5 0a       	sbc	r13, r21
    22b8:	c6 01       	movw	r24, r12
    22ba:	b5 01       	movw	r22, r10
    22bc:	a4 01       	movw	r20, r8
    22be:	93 01       	movw	r18, r6
    22c0:	0e 94 95 16 	call	0x2d2a	; 0x2d2a <__udivmodsi4>
    22c4:	7b 01       	movw	r14, r22
    22c6:	8c 01       	movw	r16, r24
    22c8:	c6 01       	movw	r24, r12
    22ca:	b5 01       	movw	r22, r10
    22cc:	a4 01       	movw	r20, r8
    22ce:	93 01       	movw	r18, r6
    22d0:	0e 94 95 16 	call	0x2d2a	; 0x2d2a <__udivmodsi4>
    22d4:	ca 01       	movw	r24, r20
    22d6:	b9 01       	movw	r22, r18
    22d8:	29 96       	adiw	r28, 0x09	; 9
    22da:	2c ad       	ldd	r18, Y+60	; 0x3c
    22dc:	3d ad       	ldd	r19, Y+61	; 0x3d
    22de:	4e ad       	ldd	r20, Y+62	; 0x3e
    22e0:	5f ad       	ldd	r21, Y+63	; 0x3f
    22e2:	29 97       	sbiw	r28, 0x09	; 9
    22e4:	0e 94 62 16 	call	0x2cc4	; 0x2cc4 <__mulsi3>
    22e8:	9b 01       	movw	r18, r22
    22ea:	ac 01       	movw	r20, r24
    22ec:	87 01       	movw	r16, r14
    22ee:	ff 24       	eor	r15, r15
    22f0:	ee 24       	eor	r14, r14
    22f2:	89 a9       	ldd	r24, Y+49	; 0x31
    22f4:	9a a9       	ldd	r25, Y+50	; 0x32
    22f6:	ab a9       	ldd	r26, Y+51	; 0x33
    22f8:	bc a9       	ldd	r27, Y+52	; 0x34
    22fa:	a0 70       	andi	r26, 0x00	; 0
    22fc:	b0 70       	andi	r27, 0x00	; 0
    22fe:	e8 2a       	or	r14, r24
    2300:	f9 2a       	or	r15, r25
    2302:	0a 2b       	or	r16, r26
    2304:	1b 2b       	or	r17, r27
    2306:	e2 16       	cp	r14, r18
    2308:	f3 06       	cpc	r15, r19
    230a:	04 07       	cpc	r16, r20
    230c:	15 07       	cpc	r17, r21
    230e:	90 f4       	brcc	.+36     	; 0x2334 <__umoddi3+0x680>
    2310:	e2 0c       	add	r14, r2
    2312:	f3 1c       	adc	r15, r3
    2314:	04 1d       	adc	r16, r4
    2316:	15 1d       	adc	r17, r5
    2318:	e2 14       	cp	r14, r2
    231a:	f3 04       	cpc	r15, r3
    231c:	04 05       	cpc	r16, r4
    231e:	15 05       	cpc	r17, r5
    2320:	48 f0       	brcs	.+18     	; 0x2334 <__umoddi3+0x680>
    2322:	e2 16       	cp	r14, r18
    2324:	f3 06       	cpc	r15, r19
    2326:	04 07       	cpc	r16, r20
    2328:	15 07       	cpc	r17, r21
    232a:	20 f4       	brcc	.+8      	; 0x2334 <__umoddi3+0x680>
    232c:	e2 0c       	add	r14, r2
    232e:	f3 1c       	adc	r15, r3
    2330:	04 1d       	adc	r16, r4
    2332:	15 1d       	adc	r17, r5
    2334:	e2 1a       	sub	r14, r18
    2336:	f3 0a       	sbc	r15, r19
    2338:	04 0b       	sbc	r16, r20
    233a:	15 0b       	sbc	r17, r21
    233c:	d8 01       	movw	r26, r16
    233e:	c7 01       	movw	r24, r14
    2340:	09 ac       	ldd	r0, Y+57	; 0x39
    2342:	04 c0       	rjmp	.+8      	; 0x234c <__umoddi3+0x698>
    2344:	b6 95       	lsr	r27
    2346:	a7 95       	ror	r26
    2348:	97 95       	ror	r25
    234a:	87 95       	ror	r24
    234c:	0a 94       	dec	r0
    234e:	d2 f7       	brpl	.-12     	; 0x2344 <__umoddi3+0x690>
    2350:	89 8b       	std	Y+17, r24	; 0x11
    2352:	9a 8b       	std	Y+18, r25	; 0x12
    2354:	ab 8b       	std	Y+19, r26	; 0x13
    2356:	bc 8b       	std	Y+20, r27	; 0x14
    2358:	1d 8a       	std	Y+21, r1	; 0x15
    235a:	1e 8a       	std	Y+22, r1	; 0x16
    235c:	1f 8a       	std	Y+23, r1	; 0x17
    235e:	18 8e       	std	Y+24, r1	; 0x18
    2360:	28 2f       	mov	r18, r24
    2362:	3a 89       	ldd	r19, Y+18	; 0x12
    2364:	4b 89       	ldd	r20, Y+19	; 0x13
    2366:	5c 89       	ldd	r21, Y+20	; 0x14
    2368:	6d 89       	ldd	r22, Y+21	; 0x15
    236a:	0c c3       	rjmp	.+1560   	; 0x2984 <__umoddi3+0xcd0>
    236c:	6a 14       	cp	r6, r10
    236e:	7b 04       	cpc	r7, r11
    2370:	8c 04       	cpc	r8, r12
    2372:	9d 04       	cpc	r9, r13
    2374:	08 f4       	brcc	.+2      	; 0x2378 <__umoddi3+0x6c4>
    2376:	09 c3       	rjmp	.+1554   	; 0x298a <__umoddi3+0xcd6>
    2378:	00 e0       	ldi	r16, 0x00	; 0
    237a:	a0 16       	cp	r10, r16
    237c:	00 e0       	ldi	r16, 0x00	; 0
    237e:	b0 06       	cpc	r11, r16
    2380:	01 e0       	ldi	r16, 0x01	; 1
    2382:	c0 06       	cpc	r12, r16
    2384:	00 e0       	ldi	r16, 0x00	; 0
    2386:	d0 06       	cpc	r13, r16
    2388:	88 f4       	brcc	.+34     	; 0x23ac <__umoddi3+0x6f8>
    238a:	1f ef       	ldi	r17, 0xFF	; 255
    238c:	a1 16       	cp	r10, r17
    238e:	b1 04       	cpc	r11, r1
    2390:	c1 04       	cpc	r12, r1
    2392:	d1 04       	cpc	r13, r1
    2394:	39 f0       	breq	.+14     	; 0x23a4 <__umoddi3+0x6f0>
    2396:	30 f0       	brcs	.+12     	; 0x23a4 <__umoddi3+0x6f0>
    2398:	28 e0       	ldi	r18, 0x08	; 8
    239a:	e2 2e       	mov	r14, r18
    239c:	f1 2c       	mov	r15, r1
    239e:	01 2d       	mov	r16, r1
    23a0:	11 2d       	mov	r17, r1
    23a2:	18 c0       	rjmp	.+48     	; 0x23d4 <__umoddi3+0x720>
    23a4:	ee 24       	eor	r14, r14
    23a6:	ff 24       	eor	r15, r15
    23a8:	87 01       	movw	r16, r14
    23aa:	14 c0       	rjmp	.+40     	; 0x23d4 <__umoddi3+0x720>
    23ac:	40 e0       	ldi	r20, 0x00	; 0
    23ae:	a4 16       	cp	r10, r20
    23b0:	40 e0       	ldi	r20, 0x00	; 0
    23b2:	b4 06       	cpc	r11, r20
    23b4:	40 e0       	ldi	r20, 0x00	; 0
    23b6:	c4 06       	cpc	r12, r20
    23b8:	41 e0       	ldi	r20, 0x01	; 1
    23ba:	d4 06       	cpc	r13, r20
    23bc:	30 f0       	brcs	.+12     	; 0x23ca <__umoddi3+0x716>
    23be:	98 e1       	ldi	r25, 0x18	; 24
    23c0:	e9 2e       	mov	r14, r25
    23c2:	f1 2c       	mov	r15, r1
    23c4:	01 2d       	mov	r16, r1
    23c6:	11 2d       	mov	r17, r1
    23c8:	05 c0       	rjmp	.+10     	; 0x23d4 <__umoddi3+0x720>
    23ca:	80 e1       	ldi	r24, 0x10	; 16
    23cc:	e8 2e       	mov	r14, r24
    23ce:	f1 2c       	mov	r15, r1
    23d0:	01 2d       	mov	r16, r1
    23d2:	11 2d       	mov	r17, r1
    23d4:	d6 01       	movw	r26, r12
    23d6:	c5 01       	movw	r24, r10
    23d8:	0e 2c       	mov	r0, r14
    23da:	04 c0       	rjmp	.+8      	; 0x23e4 <__umoddi3+0x730>
    23dc:	b6 95       	lsr	r27
    23de:	a7 95       	ror	r26
    23e0:	97 95       	ror	r25
    23e2:	87 95       	ror	r24
    23e4:	0a 94       	dec	r0
    23e6:	d2 f7       	brpl	.-12     	; 0x23dc <__umoddi3+0x728>
    23e8:	8e 57       	subi	r24, 0x7E	; 126
    23ea:	9f 4f       	sbci	r25, 0xFF	; 255
    23ec:	dc 01       	movw	r26, r24
    23ee:	2c 91       	ld	r18, X
    23f0:	80 e2       	ldi	r24, 0x20	; 32
    23f2:	90 e0       	ldi	r25, 0x00	; 0
    23f4:	a0 e0       	ldi	r26, 0x00	; 0
    23f6:	b0 e0       	ldi	r27, 0x00	; 0
    23f8:	8e 19       	sub	r24, r14
    23fa:	9f 09       	sbc	r25, r15
    23fc:	a0 0b       	sbc	r26, r16
    23fe:	b1 0b       	sbc	r27, r17
    2400:	82 1b       	sub	r24, r18
    2402:	91 09       	sbc	r25, r1
    2404:	a1 09       	sbc	r26, r1
    2406:	b1 09       	sbc	r27, r1
    2408:	00 97       	sbiw	r24, 0x00	; 0
    240a:	a1 05       	cpc	r26, r1
    240c:	b1 05       	cpc	r27, r1
    240e:	09 f0       	breq	.+2      	; 0x2412 <__umoddi3+0x75e>
    2410:	4f c0       	rjmp	.+158    	; 0x24b0 <__umoddi3+0x7fc>
    2412:	a6 14       	cp	r10, r6
    2414:	b7 04       	cpc	r11, r7
    2416:	c8 04       	cpc	r12, r8
    2418:	d9 04       	cpc	r13, r9
    241a:	58 f0       	brcs	.+22     	; 0x2432 <__umoddi3+0x77e>
    241c:	6c 96       	adiw	r28, 0x1c	; 28
    241e:	ec ac       	ldd	r14, Y+60	; 0x3c
    2420:	fd ac       	ldd	r15, Y+61	; 0x3d
    2422:	0e ad       	ldd	r16, Y+62	; 0x3e
    2424:	1f ad       	ldd	r17, Y+63	; 0x3f
    2426:	6c 97       	sbiw	r28, 0x1c	; 28
    2428:	e2 14       	cp	r14, r2
    242a:	f3 04       	cpc	r15, r3
    242c:	04 05       	cpc	r16, r4
    242e:	15 05       	cpc	r17, r5
    2430:	68 f1       	brcs	.+90     	; 0x248c <__umoddi3+0x7d8>
    2432:	6c 96       	adiw	r28, 0x1c	; 28
    2434:	ec ac       	ldd	r14, Y+60	; 0x3c
    2436:	fd ac       	ldd	r15, Y+61	; 0x3d
    2438:	0e ad       	ldd	r16, Y+62	; 0x3e
    243a:	1f ad       	ldd	r17, Y+63	; 0x3f
    243c:	6c 97       	sbiw	r28, 0x1c	; 28
    243e:	e2 18       	sub	r14, r2
    2440:	f3 08       	sbc	r15, r3
    2442:	04 09       	sbc	r16, r4
    2444:	15 09       	sbc	r17, r5
    2446:	a4 01       	movw	r20, r8
    2448:	93 01       	movw	r18, r6
    244a:	2a 19       	sub	r18, r10
    244c:	3b 09       	sbc	r19, r11
    244e:	4c 09       	sbc	r20, r12
    2450:	5d 09       	sbc	r21, r13
    2452:	aa 24       	eor	r10, r10
    2454:	bb 24       	eor	r11, r11
    2456:	65 01       	movw	r12, r10
    2458:	6c 96       	adiw	r28, 0x1c	; 28
    245a:	6c ad       	ldd	r22, Y+60	; 0x3c
    245c:	7d ad       	ldd	r23, Y+61	; 0x3d
    245e:	8e ad       	ldd	r24, Y+62	; 0x3e
    2460:	9f ad       	ldd	r25, Y+63	; 0x3f
    2462:	6c 97       	sbiw	r28, 0x1c	; 28
    2464:	6e 15       	cp	r22, r14
    2466:	7f 05       	cpc	r23, r15
    2468:	80 07       	cpc	r24, r16
    246a:	91 07       	cpc	r25, r17
    246c:	28 f4       	brcc	.+10     	; 0x2478 <__umoddi3+0x7c4>
    246e:	b1 e0       	ldi	r27, 0x01	; 1
    2470:	ab 2e       	mov	r10, r27
    2472:	b1 2c       	mov	r11, r1
    2474:	c1 2c       	mov	r12, r1
    2476:	d1 2c       	mov	r13, r1
    2478:	da 01       	movw	r26, r20
    247a:	c9 01       	movw	r24, r18
    247c:	8a 19       	sub	r24, r10
    247e:	9b 09       	sbc	r25, r11
    2480:	ac 09       	sbc	r26, r12
    2482:	bd 09       	sbc	r27, r13
    2484:	8d ab       	std	Y+53, r24	; 0x35
    2486:	9e ab       	std	Y+54, r25	; 0x36
    2488:	af ab       	std	Y+55, r26	; 0x37
    248a:	b8 af       	std	Y+56, r27	; 0x38
    248c:	e9 8a       	std	Y+17, r14	; 0x11
    248e:	fa 8a       	std	Y+18, r15	; 0x12
    2490:	0b 8b       	std	Y+19, r16	; 0x13
    2492:	1c 8b       	std	Y+20, r17	; 0x14
    2494:	6d a8       	ldd	r6, Y+53	; 0x35
    2496:	7e a8       	ldd	r7, Y+54	; 0x36
    2498:	8f a8       	ldd	r8, Y+55	; 0x37
    249a:	98 ac       	ldd	r9, Y+56	; 0x38
    249c:	6d 8a       	std	Y+21, r6	; 0x15
    249e:	7e 8a       	std	Y+22, r7	; 0x16
    24a0:	8f 8a       	std	Y+23, r8	; 0x17
    24a2:	98 8e       	std	Y+24, r9	; 0x18
    24a4:	2e 2d       	mov	r18, r14
    24a6:	3a 89       	ldd	r19, Y+18	; 0x12
    24a8:	4b 89       	ldd	r20, Y+19	; 0x13
    24aa:	5c 89       	ldd	r21, Y+20	; 0x14
    24ac:	6d a9       	ldd	r22, Y+53	; 0x35
    24ae:	6a c2       	rjmp	.+1236   	; 0x2984 <__umoddi3+0xcd0>
    24b0:	67 96       	adiw	r28, 0x17	; 23
    24b2:	8f af       	std	Y+63, r24	; 0x3f
    24b4:	67 97       	sbiw	r28, 0x17	; 23
    24b6:	a6 01       	movw	r20, r12
    24b8:	95 01       	movw	r18, r10
    24ba:	08 2e       	mov	r0, r24
    24bc:	04 c0       	rjmp	.+8      	; 0x24c6 <__umoddi3+0x812>
    24be:	22 0f       	add	r18, r18
    24c0:	33 1f       	adc	r19, r19
    24c2:	44 1f       	adc	r20, r20
    24c4:	55 1f       	adc	r21, r21
    24c6:	0a 94       	dec	r0
    24c8:	d2 f7       	brpl	.-12     	; 0x24be <__umoddi3+0x80a>
    24ca:	a0 e2       	ldi	r26, 0x20	; 32
    24cc:	aa 2e       	mov	r10, r26
    24ce:	a8 1a       	sub	r10, r24
    24d0:	66 96       	adiw	r28, 0x16	; 22
    24d2:	af ae       	std	Y+63, r10	; 0x3f
    24d4:	66 97       	sbiw	r28, 0x16	; 22
    24d6:	d2 01       	movw	r26, r4
    24d8:	c1 01       	movw	r24, r2
    24da:	04 c0       	rjmp	.+8      	; 0x24e4 <__umoddi3+0x830>
    24dc:	b6 95       	lsr	r27
    24de:	a7 95       	ror	r26
    24e0:	97 95       	ror	r25
    24e2:	87 95       	ror	r24
    24e4:	aa 94       	dec	r10
    24e6:	d2 f7       	brpl	.-12     	; 0x24dc <__umoddi3+0x828>
    24e8:	6c 01       	movw	r12, r24
    24ea:	7d 01       	movw	r14, r26
    24ec:	c2 2a       	or	r12, r18
    24ee:	d3 2a       	or	r13, r19
    24f0:	e4 2a       	or	r14, r20
    24f2:	f5 2a       	or	r15, r21
    24f4:	c9 a6       	std	Y+41, r12	; 0x29
    24f6:	da a6       	std	Y+42, r13	; 0x2a
    24f8:	eb a6       	std	Y+43, r14	; 0x2b
    24fa:	fc a6       	std	Y+44, r15	; 0x2c
    24fc:	82 01       	movw	r16, r4
    24fe:	71 01       	movw	r14, r2
    2500:	67 96       	adiw	r28, 0x17	; 23
    2502:	0f ac       	ldd	r0, Y+63	; 0x3f
    2504:	67 97       	sbiw	r28, 0x17	; 23
    2506:	04 c0       	rjmp	.+8      	; 0x2510 <__umoddi3+0x85c>
    2508:	ee 0c       	add	r14, r14
    250a:	ff 1c       	adc	r15, r15
    250c:	00 1f       	adc	r16, r16
    250e:	11 1f       	adc	r17, r17
    2510:	0a 94       	dec	r0
    2512:	d2 f7       	brpl	.-12     	; 0x2508 <__umoddi3+0x854>
    2514:	ed a2       	std	Y+37, r14	; 0x25
    2516:	fe a2       	std	Y+38, r15	; 0x26
    2518:	0f a3       	std	Y+39, r16	; 0x27
    251a:	18 a7       	std	Y+40, r17	; 0x28
    251c:	64 01       	movw	r12, r8
    251e:	53 01       	movw	r10, r6
    2520:	66 96       	adiw	r28, 0x16	; 22
    2522:	0f ac       	ldd	r0, Y+63	; 0x3f
    2524:	66 97       	sbiw	r28, 0x16	; 22
    2526:	04 c0       	rjmp	.+8      	; 0x2530 <__umoddi3+0x87c>
    2528:	d6 94       	lsr	r13
    252a:	c7 94       	ror	r12
    252c:	b7 94       	ror	r11
    252e:	a7 94       	ror	r10
    2530:	0a 94       	dec	r0
    2532:	d2 f7       	brpl	.-12     	; 0x2528 <__umoddi3+0x874>
    2534:	a4 01       	movw	r20, r8
    2536:	93 01       	movw	r18, r6
    2538:	67 96       	adiw	r28, 0x17	; 23
    253a:	0f ac       	ldd	r0, Y+63	; 0x3f
    253c:	67 97       	sbiw	r28, 0x17	; 23
    253e:	04 c0       	rjmp	.+8      	; 0x2548 <__umoddi3+0x894>
    2540:	22 0f       	add	r18, r18
    2542:	33 1f       	adc	r19, r19
    2544:	44 1f       	adc	r20, r20
    2546:	55 1f       	adc	r21, r21
    2548:	0a 94       	dec	r0
    254a:	d2 f7       	brpl	.-12     	; 0x2540 <__umoddi3+0x88c>
    254c:	6c 96       	adiw	r28, 0x1c	; 28
    254e:	8c ad       	ldd	r24, Y+60	; 0x3c
    2550:	9d ad       	ldd	r25, Y+61	; 0x3d
    2552:	ae ad       	ldd	r26, Y+62	; 0x3e
    2554:	bf ad       	ldd	r27, Y+63	; 0x3f
    2556:	6c 97       	sbiw	r28, 0x1c	; 28
    2558:	66 96       	adiw	r28, 0x16	; 22
    255a:	0f ac       	ldd	r0, Y+63	; 0x3f
    255c:	66 97       	sbiw	r28, 0x16	; 22
    255e:	04 c0       	rjmp	.+8      	; 0x2568 <__umoddi3+0x8b4>
    2560:	b6 95       	lsr	r27
    2562:	a7 95       	ror	r26
    2564:	97 95       	ror	r25
    2566:	87 95       	ror	r24
    2568:	0a 94       	dec	r0
    256a:	d2 f7       	brpl	.-12     	; 0x2560 <__umoddi3+0x8ac>
    256c:	3c 01       	movw	r6, r24
    256e:	4d 01       	movw	r8, r26
    2570:	62 2a       	or	r6, r18
    2572:	73 2a       	or	r7, r19
    2574:	84 2a       	or	r8, r20
    2576:	95 2a       	or	r9, r21
    2578:	69 a2       	std	Y+33, r6	; 0x21
    257a:	7a a2       	std	Y+34, r7	; 0x22
    257c:	8b a2       	std	Y+35, r8	; 0x23
    257e:	9c a2       	std	Y+36, r9	; 0x24
    2580:	6c 96       	adiw	r28, 0x1c	; 28
    2582:	ec ac       	ldd	r14, Y+60	; 0x3c
    2584:	fd ac       	ldd	r15, Y+61	; 0x3d
    2586:	0e ad       	ldd	r16, Y+62	; 0x3e
    2588:	1f ad       	ldd	r17, Y+63	; 0x3f
    258a:	6c 97       	sbiw	r28, 0x1c	; 28
    258c:	67 96       	adiw	r28, 0x17	; 23
    258e:	0f ac       	ldd	r0, Y+63	; 0x3f
    2590:	67 97       	sbiw	r28, 0x17	; 23
    2592:	04 c0       	rjmp	.+8      	; 0x259c <__umoddi3+0x8e8>
    2594:	ee 0c       	add	r14, r14
    2596:	ff 1c       	adc	r15, r15
    2598:	00 1f       	adc	r16, r16
    259a:	11 1f       	adc	r17, r17
    259c:	0a 94       	dec	r0
    259e:	d2 f7       	brpl	.-12     	; 0x2594 <__umoddi3+0x8e0>
    25a0:	ed 8e       	std	Y+29, r14	; 0x1d
    25a2:	fe 8e       	std	Y+30, r15	; 0x1e
    25a4:	0f 8f       	std	Y+31, r16	; 0x1f
    25a6:	18 a3       	std	Y+32, r17	; 0x20
    25a8:	49 a5       	ldd	r20, Y+41	; 0x29
    25aa:	5a a5       	ldd	r21, Y+42	; 0x2a
    25ac:	6b a5       	ldd	r22, Y+43	; 0x2b
    25ae:	7c a5       	ldd	r23, Y+44	; 0x2c
    25b0:	3b 01       	movw	r6, r22
    25b2:	88 24       	eor	r8, r8
    25b4:	99 24       	eor	r9, r9
    25b6:	60 70       	andi	r22, 0x00	; 0
    25b8:	70 70       	andi	r23, 0x00	; 0
    25ba:	2d 96       	adiw	r28, 0x0d	; 13
    25bc:	4c af       	std	Y+60, r20	; 0x3c
    25be:	5d af       	std	Y+61, r21	; 0x3d
    25c0:	6e af       	std	Y+62, r22	; 0x3e
    25c2:	7f af       	std	Y+63, r23	; 0x3f
    25c4:	2d 97       	sbiw	r28, 0x0d	; 13
    25c6:	c6 01       	movw	r24, r12
    25c8:	b5 01       	movw	r22, r10
    25ca:	a4 01       	movw	r20, r8
    25cc:	93 01       	movw	r18, r6
    25ce:	0e 94 95 16 	call	0x2d2a	; 0x2d2a <__udivmodsi4>
    25d2:	7b 01       	movw	r14, r22
    25d4:	8c 01       	movw	r16, r24
    25d6:	c6 01       	movw	r24, r12
    25d8:	b5 01       	movw	r22, r10
    25da:	a4 01       	movw	r20, r8
    25dc:	93 01       	movw	r18, r6
    25de:	0e 94 95 16 	call	0x2d2a	; 0x2d2a <__udivmodsi4>
    25e2:	c9 01       	movw	r24, r18
    25e4:	da 01       	movw	r26, r20
    25e6:	1c 01       	movw	r2, r24
    25e8:	2d 01       	movw	r4, r26
    25ea:	c2 01       	movw	r24, r4
    25ec:	b1 01       	movw	r22, r2
    25ee:	2d 96       	adiw	r28, 0x0d	; 13
    25f0:	2c ad       	ldd	r18, Y+60	; 0x3c
    25f2:	3d ad       	ldd	r19, Y+61	; 0x3d
    25f4:	4e ad       	ldd	r20, Y+62	; 0x3e
    25f6:	5f ad       	ldd	r21, Y+63	; 0x3f
    25f8:	2d 97       	sbiw	r28, 0x0d	; 13
    25fa:	0e 94 62 16 	call	0x2cc4	; 0x2cc4 <__mulsi3>
    25fe:	9b 01       	movw	r18, r22
    2600:	ac 01       	movw	r20, r24
    2602:	87 01       	movw	r16, r14
    2604:	ff 24       	eor	r15, r15
    2606:	ee 24       	eor	r14, r14
    2608:	a9 a0       	ldd	r10, Y+33	; 0x21
    260a:	ba a0       	ldd	r11, Y+34	; 0x22
    260c:	cb a0       	ldd	r12, Y+35	; 0x23
    260e:	dc a0       	ldd	r13, Y+36	; 0x24
    2610:	c6 01       	movw	r24, r12
    2612:	aa 27       	eor	r26, r26
    2614:	bb 27       	eor	r27, r27
    2616:	57 01       	movw	r10, r14
    2618:	68 01       	movw	r12, r16
    261a:	a8 2a       	or	r10, r24
    261c:	b9 2a       	or	r11, r25
    261e:	ca 2a       	or	r12, r26
    2620:	db 2a       	or	r13, r27
    2622:	a2 16       	cp	r10, r18
    2624:	b3 06       	cpc	r11, r19
    2626:	c4 06       	cpc	r12, r20
    2628:	d5 06       	cpc	r13, r21
    262a:	00 f5       	brcc	.+64     	; 0x266c <__umoddi3+0x9b8>
    262c:	08 94       	sec
    262e:	21 08       	sbc	r2, r1
    2630:	31 08       	sbc	r3, r1
    2632:	41 08       	sbc	r4, r1
    2634:	51 08       	sbc	r5, r1
    2636:	e9 a4       	ldd	r14, Y+41	; 0x29
    2638:	fa a4       	ldd	r15, Y+42	; 0x2a
    263a:	0b a5       	ldd	r16, Y+43	; 0x2b
    263c:	1c a5       	ldd	r17, Y+44	; 0x2c
    263e:	ae 0c       	add	r10, r14
    2640:	bf 1c       	adc	r11, r15
    2642:	c0 1e       	adc	r12, r16
    2644:	d1 1e       	adc	r13, r17
    2646:	ae 14       	cp	r10, r14
    2648:	bf 04       	cpc	r11, r15
    264a:	c0 06       	cpc	r12, r16
    264c:	d1 06       	cpc	r13, r17
    264e:	70 f0       	brcs	.+28     	; 0x266c <__umoddi3+0x9b8>
    2650:	a2 16       	cp	r10, r18
    2652:	b3 06       	cpc	r11, r19
    2654:	c4 06       	cpc	r12, r20
    2656:	d5 06       	cpc	r13, r21
    2658:	48 f4       	brcc	.+18     	; 0x266c <__umoddi3+0x9b8>
    265a:	08 94       	sec
    265c:	21 08       	sbc	r2, r1
    265e:	31 08       	sbc	r3, r1
    2660:	41 08       	sbc	r4, r1
    2662:	51 08       	sbc	r5, r1
    2664:	ae 0c       	add	r10, r14
    2666:	bf 1c       	adc	r11, r15
    2668:	c0 1e       	adc	r12, r16
    266a:	d1 1e       	adc	r13, r17
    266c:	a2 1a       	sub	r10, r18
    266e:	b3 0a       	sbc	r11, r19
    2670:	c4 0a       	sbc	r12, r20
    2672:	d5 0a       	sbc	r13, r21
    2674:	c6 01       	movw	r24, r12
    2676:	b5 01       	movw	r22, r10
    2678:	a4 01       	movw	r20, r8
    267a:	93 01       	movw	r18, r6
    267c:	0e 94 95 16 	call	0x2d2a	; 0x2d2a <__udivmodsi4>
    2680:	7b 01       	movw	r14, r22
    2682:	8c 01       	movw	r16, r24
    2684:	c6 01       	movw	r24, r12
    2686:	b5 01       	movw	r22, r10
    2688:	a4 01       	movw	r20, r8
    268a:	93 01       	movw	r18, r6
    268c:	0e 94 95 16 	call	0x2d2a	; 0x2d2a <__udivmodsi4>
    2690:	c9 01       	movw	r24, r18
    2692:	da 01       	movw	r26, r20
    2694:	3c 01       	movw	r6, r24
    2696:	4d 01       	movw	r8, r26
    2698:	c4 01       	movw	r24, r8
    269a:	b3 01       	movw	r22, r6
    269c:	2d 96       	adiw	r28, 0x0d	; 13
    269e:	2c ad       	ldd	r18, Y+60	; 0x3c
    26a0:	3d ad       	ldd	r19, Y+61	; 0x3d
    26a2:	4e ad       	ldd	r20, Y+62	; 0x3e
    26a4:	5f ad       	ldd	r21, Y+63	; 0x3f
    26a6:	2d 97       	sbiw	r28, 0x0d	; 13
    26a8:	0e 94 62 16 	call	0x2cc4	; 0x2cc4 <__mulsi3>
    26ac:	9b 01       	movw	r18, r22
    26ae:	ac 01       	movw	r20, r24
    26b0:	87 01       	movw	r16, r14
    26b2:	ff 24       	eor	r15, r15
    26b4:	ee 24       	eor	r14, r14
    26b6:	89 a1       	ldd	r24, Y+33	; 0x21
    26b8:	9a a1       	ldd	r25, Y+34	; 0x22
    26ba:	ab a1       	ldd	r26, Y+35	; 0x23
    26bc:	bc a1       	ldd	r27, Y+36	; 0x24
    26be:	a0 70       	andi	r26, 0x00	; 0
    26c0:	b0 70       	andi	r27, 0x00	; 0
    26c2:	57 01       	movw	r10, r14
    26c4:	68 01       	movw	r12, r16
    26c6:	a8 2a       	or	r10, r24
    26c8:	b9 2a       	or	r11, r25
    26ca:	ca 2a       	or	r12, r26
    26cc:	db 2a       	or	r13, r27
    26ce:	a2 16       	cp	r10, r18
    26d0:	b3 06       	cpc	r11, r19
    26d2:	c4 06       	cpc	r12, r20
    26d4:	d5 06       	cpc	r13, r21
    26d6:	00 f5       	brcc	.+64     	; 0x2718 <__umoddi3+0xa64>
    26d8:	08 94       	sec
    26da:	61 08       	sbc	r6, r1
    26dc:	71 08       	sbc	r7, r1
    26de:	81 08       	sbc	r8, r1
    26e0:	91 08       	sbc	r9, r1
    26e2:	69 a5       	ldd	r22, Y+41	; 0x29
    26e4:	7a a5       	ldd	r23, Y+42	; 0x2a
    26e6:	8b a5       	ldd	r24, Y+43	; 0x2b
    26e8:	9c a5       	ldd	r25, Y+44	; 0x2c
    26ea:	a6 0e       	add	r10, r22
    26ec:	b7 1e       	adc	r11, r23
    26ee:	c8 1e       	adc	r12, r24
    26f0:	d9 1e       	adc	r13, r25
    26f2:	a6 16       	cp	r10, r22
    26f4:	b7 06       	cpc	r11, r23
    26f6:	c8 06       	cpc	r12, r24
    26f8:	d9 06       	cpc	r13, r25
    26fa:	70 f0       	brcs	.+28     	; 0x2718 <__umoddi3+0xa64>
    26fc:	a2 16       	cp	r10, r18
    26fe:	b3 06       	cpc	r11, r19
    2700:	c4 06       	cpc	r12, r20
    2702:	d5 06       	cpc	r13, r21
    2704:	48 f4       	brcc	.+18     	; 0x2718 <__umoddi3+0xa64>
    2706:	08 94       	sec
    2708:	61 08       	sbc	r6, r1
    270a:	71 08       	sbc	r7, r1
    270c:	81 08       	sbc	r8, r1
    270e:	91 08       	sbc	r9, r1
    2710:	a6 0e       	add	r10, r22
    2712:	b7 1e       	adc	r11, r23
    2714:	c8 1e       	adc	r12, r24
    2716:	d9 1e       	adc	r13, r25
    2718:	d6 01       	movw	r26, r12
    271a:	c5 01       	movw	r24, r10
    271c:	82 1b       	sub	r24, r18
    271e:	93 0b       	sbc	r25, r19
    2720:	a4 0b       	sbc	r26, r20
    2722:	b5 0b       	sbc	r27, r21
    2724:	89 8f       	std	Y+25, r24	; 0x19
    2726:	9a 8f       	std	Y+26, r25	; 0x1a
    2728:	ab 8f       	std	Y+27, r26	; 0x1b
    272a:	bc 8f       	std	Y+28, r27	; 0x1c
    272c:	d1 01       	movw	r26, r2
    272e:	99 27       	eor	r25, r25
    2730:	88 27       	eor	r24, r24
    2732:	84 01       	movw	r16, r8
    2734:	73 01       	movw	r14, r6
    2736:	e8 2a       	or	r14, r24
    2738:	f9 2a       	or	r15, r25
    273a:	0a 2b       	or	r16, r26
    273c:	1b 2b       	or	r17, r27
    273e:	4f ef       	ldi	r20, 0xFF	; 255
    2740:	a4 2e       	mov	r10, r20
    2742:	4f ef       	ldi	r20, 0xFF	; 255
    2744:	b4 2e       	mov	r11, r20
    2746:	c1 2c       	mov	r12, r1
    2748:	d1 2c       	mov	r13, r1
    274a:	ae 20       	and	r10, r14
    274c:	bf 20       	and	r11, r15
    274e:	c0 22       	and	r12, r16
    2750:	d1 22       	and	r13, r17
    2752:	78 01       	movw	r14, r16
    2754:	00 27       	eor	r16, r16
    2756:	11 27       	eor	r17, r17
    2758:	6d a0       	ldd	r6, Y+37	; 0x25
    275a:	7e a0       	ldd	r7, Y+38	; 0x26
    275c:	8f a0       	ldd	r8, Y+39	; 0x27
    275e:	98 a4       	ldd	r9, Y+40	; 0x28
    2760:	4f ef       	ldi	r20, 0xFF	; 255
    2762:	5f ef       	ldi	r21, 0xFF	; 255
    2764:	60 e0       	ldi	r22, 0x00	; 0
    2766:	70 e0       	ldi	r23, 0x00	; 0
    2768:	64 22       	and	r6, r20
    276a:	75 22       	and	r7, r21
    276c:	86 22       	and	r8, r22
    276e:	97 22       	and	r9, r23
    2770:	8d a1       	ldd	r24, Y+37	; 0x25
    2772:	9e a1       	ldd	r25, Y+38	; 0x26
    2774:	af a1       	ldd	r26, Y+39	; 0x27
    2776:	b8 a5       	ldd	r27, Y+40	; 0x28
    2778:	bd 01       	movw	r22, r26
    277a:	88 27       	eor	r24, r24
    277c:	99 27       	eor	r25, r25
    277e:	65 96       	adiw	r28, 0x15	; 21
    2780:	6c af       	std	Y+60, r22	; 0x3c
    2782:	7d af       	std	Y+61, r23	; 0x3d
    2784:	8e af       	std	Y+62, r24	; 0x3e
    2786:	9f af       	std	Y+63, r25	; 0x3f
    2788:	65 97       	sbiw	r28, 0x15	; 21
    278a:	c6 01       	movw	r24, r12
    278c:	b5 01       	movw	r22, r10
    278e:	a4 01       	movw	r20, r8
    2790:	93 01       	movw	r18, r6
    2792:	0e 94 62 16 	call	0x2cc4	; 0x2cc4 <__mulsi3>
    2796:	61 96       	adiw	r28, 0x11	; 17
    2798:	6c af       	std	Y+60, r22	; 0x3c
    279a:	7d af       	std	Y+61, r23	; 0x3d
    279c:	8e af       	std	Y+62, r24	; 0x3e
    279e:	9f af       	std	Y+63, r25	; 0x3f
    27a0:	61 97       	sbiw	r28, 0x11	; 17
    27a2:	c6 01       	movw	r24, r12
    27a4:	b5 01       	movw	r22, r10
    27a6:	65 96       	adiw	r28, 0x15	; 21
    27a8:	2c ad       	ldd	r18, Y+60	; 0x3c
    27aa:	3d ad       	ldd	r19, Y+61	; 0x3d
    27ac:	4e ad       	ldd	r20, Y+62	; 0x3e
    27ae:	5f ad       	ldd	r21, Y+63	; 0x3f
    27b0:	65 97       	sbiw	r28, 0x15	; 21
    27b2:	0e 94 62 16 	call	0x2cc4	; 0x2cc4 <__mulsi3>
    27b6:	1b 01       	movw	r2, r22
    27b8:	2c 01       	movw	r4, r24
    27ba:	c8 01       	movw	r24, r16
    27bc:	b7 01       	movw	r22, r14
    27be:	a4 01       	movw	r20, r8
    27c0:	93 01       	movw	r18, r6
    27c2:	0e 94 62 16 	call	0x2cc4	; 0x2cc4 <__mulsi3>
    27c6:	5b 01       	movw	r10, r22
    27c8:	6c 01       	movw	r12, r24
    27ca:	c8 01       	movw	r24, r16
    27cc:	b7 01       	movw	r22, r14
    27ce:	65 96       	adiw	r28, 0x15	; 21
    27d0:	2c ad       	ldd	r18, Y+60	; 0x3c
    27d2:	3d ad       	ldd	r19, Y+61	; 0x3d
    27d4:	4e ad       	ldd	r20, Y+62	; 0x3e
    27d6:	5f ad       	ldd	r21, Y+63	; 0x3f
    27d8:	65 97       	sbiw	r28, 0x15	; 21
    27da:	0e 94 62 16 	call	0x2cc4	; 0x2cc4 <__mulsi3>
    27de:	7b 01       	movw	r14, r22
    27e0:	8c 01       	movw	r16, r24
    27e2:	a6 01       	movw	r20, r12
    27e4:	95 01       	movw	r18, r10
    27e6:	22 0d       	add	r18, r2
    27e8:	33 1d       	adc	r19, r3
    27ea:	44 1d       	adc	r20, r4
    27ec:	55 1d       	adc	r21, r5
    27ee:	61 96       	adiw	r28, 0x11	; 17
    27f0:	6c ac       	ldd	r6, Y+60	; 0x3c
    27f2:	7d ac       	ldd	r7, Y+61	; 0x3d
    27f4:	8e ac       	ldd	r8, Y+62	; 0x3e
    27f6:	9f ac       	ldd	r9, Y+63	; 0x3f
    27f8:	61 97       	sbiw	r28, 0x11	; 17
    27fa:	c4 01       	movw	r24, r8
    27fc:	aa 27       	eor	r26, r26
    27fe:	bb 27       	eor	r27, r27
    2800:	28 0f       	add	r18, r24
    2802:	39 1f       	adc	r19, r25
    2804:	4a 1f       	adc	r20, r26
    2806:	5b 1f       	adc	r21, r27
    2808:	2a 15       	cp	r18, r10
    280a:	3b 05       	cpc	r19, r11
    280c:	4c 05       	cpc	r20, r12
    280e:	5d 05       	cpc	r21, r13
    2810:	48 f4       	brcc	.+18     	; 0x2824 <__umoddi3+0xb70>
    2812:	81 2c       	mov	r8, r1
    2814:	91 2c       	mov	r9, r1
    2816:	e1 e0       	ldi	r30, 0x01	; 1
    2818:	ae 2e       	mov	r10, r30
    281a:	b1 2c       	mov	r11, r1
    281c:	e8 0c       	add	r14, r8
    281e:	f9 1c       	adc	r15, r9
    2820:	0a 1d       	adc	r16, r10
    2822:	1b 1d       	adc	r17, r11
    2824:	ca 01       	movw	r24, r20
    2826:	aa 27       	eor	r26, r26
    2828:	bb 27       	eor	r27, r27
    282a:	57 01       	movw	r10, r14
    282c:	68 01       	movw	r12, r16
    282e:	a8 0e       	add	r10, r24
    2830:	b9 1e       	adc	r11, r25
    2832:	ca 1e       	adc	r12, r26
    2834:	db 1e       	adc	r13, r27
    2836:	a9 01       	movw	r20, r18
    2838:	33 27       	eor	r19, r19
    283a:	22 27       	eor	r18, r18
    283c:	61 96       	adiw	r28, 0x11	; 17
    283e:	8c ad       	ldd	r24, Y+60	; 0x3c
    2840:	9d ad       	ldd	r25, Y+61	; 0x3d
    2842:	ae ad       	ldd	r26, Y+62	; 0x3e
    2844:	bf ad       	ldd	r27, Y+63	; 0x3f
    2846:	61 97       	sbiw	r28, 0x11	; 17
    2848:	a0 70       	andi	r26, 0x00	; 0
    284a:	b0 70       	andi	r27, 0x00	; 0
    284c:	28 0f       	add	r18, r24
    284e:	39 1f       	adc	r19, r25
    2850:	4a 1f       	adc	r20, r26
    2852:	5b 1f       	adc	r21, r27
    2854:	e9 8c       	ldd	r14, Y+25	; 0x19
    2856:	fa 8c       	ldd	r15, Y+26	; 0x1a
    2858:	0b 8d       	ldd	r16, Y+27	; 0x1b
    285a:	1c 8d       	ldd	r17, Y+28	; 0x1c
    285c:	ea 14       	cp	r14, r10
    285e:	fb 04       	cpc	r15, r11
    2860:	0c 05       	cpc	r16, r12
    2862:	1d 05       	cpc	r17, r13
    2864:	70 f0       	brcs	.+28     	; 0x2882 <__umoddi3+0xbce>
    2866:	ae 14       	cp	r10, r14
    2868:	bf 04       	cpc	r11, r15
    286a:	c0 06       	cpc	r12, r16
    286c:	d1 06       	cpc	r13, r17
    286e:	69 f5       	brne	.+90     	; 0x28ca <__umoddi3+0xc16>
    2870:	6d 8d       	ldd	r22, Y+29	; 0x1d
    2872:	7e 8d       	ldd	r23, Y+30	; 0x1e
    2874:	8f 8d       	ldd	r24, Y+31	; 0x1f
    2876:	98 a1       	ldd	r25, Y+32	; 0x20
    2878:	62 17       	cp	r22, r18
    287a:	73 07       	cpc	r23, r19
    287c:	84 07       	cpc	r24, r20
    287e:	95 07       	cpc	r25, r21
    2880:	20 f5       	brcc	.+72     	; 0x28ca <__umoddi3+0xc16>
    2882:	da 01       	movw	r26, r20
    2884:	c9 01       	movw	r24, r18
    2886:	6d a0       	ldd	r6, Y+37	; 0x25
    2888:	7e a0       	ldd	r7, Y+38	; 0x26
    288a:	8f a0       	ldd	r8, Y+39	; 0x27
    288c:	98 a4       	ldd	r9, Y+40	; 0x28
    288e:	86 19       	sub	r24, r6
    2890:	97 09       	sbc	r25, r7
    2892:	a8 09       	sbc	r26, r8
    2894:	b9 09       	sbc	r27, r9
    2896:	e9 a4       	ldd	r14, Y+41	; 0x29
    2898:	fa a4       	ldd	r15, Y+42	; 0x2a
    289a:	0b a5       	ldd	r16, Y+43	; 0x2b
    289c:	1c a5       	ldd	r17, Y+44	; 0x2c
    289e:	ae 18       	sub	r10, r14
    28a0:	bf 08       	sbc	r11, r15
    28a2:	c0 0a       	sbc	r12, r16
    28a4:	d1 0a       	sbc	r13, r17
    28a6:	ee 24       	eor	r14, r14
    28a8:	ff 24       	eor	r15, r15
    28aa:	87 01       	movw	r16, r14
    28ac:	28 17       	cp	r18, r24
    28ae:	39 07       	cpc	r19, r25
    28b0:	4a 07       	cpc	r20, r26
    28b2:	5b 07       	cpc	r21, r27
    28b4:	28 f4       	brcc	.+10     	; 0x28c0 <__umoddi3+0xc0c>
    28b6:	21 e0       	ldi	r18, 0x01	; 1
    28b8:	e2 2e       	mov	r14, r18
    28ba:	f1 2c       	mov	r15, r1
    28bc:	01 2d       	mov	r16, r1
    28be:	11 2d       	mov	r17, r1
    28c0:	ae 18       	sub	r10, r14
    28c2:	bf 08       	sbc	r11, r15
    28c4:	c0 0a       	sbc	r12, r16
    28c6:	d1 0a       	sbc	r13, r17
    28c8:	02 c0       	rjmp	.+4      	; 0x28ce <__umoddi3+0xc1a>
    28ca:	da 01       	movw	r26, r20
    28cc:	c9 01       	movw	r24, r18
    28ce:	6d 8c       	ldd	r6, Y+29	; 0x1d
    28d0:	7e 8c       	ldd	r7, Y+30	; 0x1e
    28d2:	8f 8c       	ldd	r8, Y+31	; 0x1f
    28d4:	98 a0       	ldd	r9, Y+32	; 0x20
    28d6:	68 1a       	sub	r6, r24
    28d8:	79 0a       	sbc	r7, r25
    28da:	8a 0a       	sbc	r8, r26
    28dc:	9b 0a       	sbc	r9, r27
    28de:	49 8d       	ldd	r20, Y+25	; 0x19
    28e0:	5a 8d       	ldd	r21, Y+26	; 0x1a
    28e2:	6b 8d       	ldd	r22, Y+27	; 0x1b
    28e4:	7c 8d       	ldd	r23, Y+28	; 0x1c
    28e6:	4a 19       	sub	r20, r10
    28e8:	5b 09       	sbc	r21, r11
    28ea:	6c 09       	sbc	r22, r12
    28ec:	7d 09       	sbc	r23, r13
    28ee:	5a 01       	movw	r10, r20
    28f0:	6b 01       	movw	r12, r22
    28f2:	22 24       	eor	r2, r2
    28f4:	33 24       	eor	r3, r3
    28f6:	21 01       	movw	r4, r2
    28f8:	6d 8d       	ldd	r22, Y+29	; 0x1d
    28fa:	7e 8d       	ldd	r23, Y+30	; 0x1e
    28fc:	8f 8d       	ldd	r24, Y+31	; 0x1f
    28fe:	98 a1       	ldd	r25, Y+32	; 0x20
    2900:	66 15       	cp	r22, r6
    2902:	77 05       	cpc	r23, r7
    2904:	88 05       	cpc	r24, r8
    2906:	99 05       	cpc	r25, r9
    2908:	28 f4       	brcc	.+10     	; 0x2914 <__umoddi3+0xc60>
    290a:	81 e0       	ldi	r24, 0x01	; 1
    290c:	28 2e       	mov	r2, r24
    290e:	31 2c       	mov	r3, r1
    2910:	41 2c       	mov	r4, r1
    2912:	51 2c       	mov	r5, r1
    2914:	86 01       	movw	r16, r12
    2916:	75 01       	movw	r14, r10
    2918:	e2 18       	sub	r14, r2
    291a:	f3 08       	sbc	r15, r3
    291c:	04 09       	sbc	r16, r4
    291e:	15 09       	sbc	r17, r5
    2920:	a8 01       	movw	r20, r16
    2922:	97 01       	movw	r18, r14
    2924:	66 96       	adiw	r28, 0x16	; 22
    2926:	0f ac       	ldd	r0, Y+63	; 0x3f
    2928:	66 97       	sbiw	r28, 0x16	; 22
    292a:	04 c0       	rjmp	.+8      	; 0x2934 <__umoddi3+0xc80>
    292c:	22 0f       	add	r18, r18
    292e:	33 1f       	adc	r19, r19
    2930:	44 1f       	adc	r20, r20
    2932:	55 1f       	adc	r21, r21
    2934:	0a 94       	dec	r0
    2936:	d2 f7       	brpl	.-12     	; 0x292c <__umoddi3+0xc78>
    2938:	d4 01       	movw	r26, r8
    293a:	c3 01       	movw	r24, r6
    293c:	67 96       	adiw	r28, 0x17	; 23
    293e:	0f ac       	ldd	r0, Y+63	; 0x3f
    2940:	67 97       	sbiw	r28, 0x17	; 23
    2942:	04 c0       	rjmp	.+8      	; 0x294c <__umoddi3+0xc98>
    2944:	b6 95       	lsr	r27
    2946:	a7 95       	ror	r26
    2948:	97 95       	ror	r25
    294a:	87 95       	ror	r24
    294c:	0a 94       	dec	r0
    294e:	d2 f7       	brpl	.-12     	; 0x2944 <__umoddi3+0xc90>
    2950:	28 2b       	or	r18, r24
    2952:	39 2b       	or	r19, r25
    2954:	4a 2b       	or	r20, r26
    2956:	5b 2b       	or	r21, r27
    2958:	29 8b       	std	Y+17, r18	; 0x11
    295a:	3a 8b       	std	Y+18, r19	; 0x12
    295c:	4b 8b       	std	Y+19, r20	; 0x13
    295e:	5c 8b       	std	Y+20, r21	; 0x14
    2960:	67 96       	adiw	r28, 0x17	; 23
    2962:	0f ac       	ldd	r0, Y+63	; 0x3f
    2964:	67 97       	sbiw	r28, 0x17	; 23
    2966:	04 c0       	rjmp	.+8      	; 0x2970 <__umoddi3+0xcbc>
    2968:	16 95       	lsr	r17
    296a:	07 95       	ror	r16
    296c:	f7 94       	ror	r15
    296e:	e7 94       	ror	r14
    2970:	0a 94       	dec	r0
    2972:	d2 f7       	brpl	.-12     	; 0x2968 <__umoddi3+0xcb4>
    2974:	ed 8a       	std	Y+21, r14	; 0x15
    2976:	fe 8a       	std	Y+22, r15	; 0x16
    2978:	0f 8b       	std	Y+23, r16	; 0x17
    297a:	18 8f       	std	Y+24, r17	; 0x18
    297c:	3a 89       	ldd	r19, Y+18	; 0x12
    297e:	4b 89       	ldd	r20, Y+19	; 0x13
    2980:	5c 89       	ldd	r21, Y+20	; 0x14
    2982:	6e 2d       	mov	r22, r14
    2984:	7e 89       	ldd	r23, Y+22	; 0x16
    2986:	8f 89       	ldd	r24, Y+23	; 0x17
    2988:	98 8d       	ldd	r25, Y+24	; 0x18
    298a:	c5 5a       	subi	r28, 0xA5	; 165
    298c:	df 4f       	sbci	r29, 0xFF	; 255
    298e:	e2 e1       	ldi	r30, 0x12	; 18
    2990:	0c 94 d3 16 	jmp	0x2da6	; 0x2da6 <__epilogue_restores__>

00002994 <__divsf3>:
    2994:	0c d0       	rcall	.+24     	; 0x29ae <__divsf3x>
    2996:	e6 c0       	rjmp	.+460    	; 0x2b64 <__fp_round>
    2998:	de d0       	rcall	.+444    	; 0x2b56 <__fp_pscB>
    299a:	40 f0       	brcs	.+16     	; 0x29ac <__divsf3+0x18>
    299c:	d5 d0       	rcall	.+426    	; 0x2b48 <__fp_pscA>
    299e:	30 f0       	brcs	.+12     	; 0x29ac <__divsf3+0x18>
    29a0:	21 f4       	brne	.+8      	; 0x29aa <__divsf3+0x16>
    29a2:	5f 3f       	cpi	r21, 0xFF	; 255
    29a4:	19 f0       	breq	.+6      	; 0x29ac <__divsf3+0x18>
    29a6:	c7 c0       	rjmp	.+398    	; 0x2b36 <__fp_inf>
    29a8:	51 11       	cpse	r21, r1
    29aa:	10 c1       	rjmp	.+544    	; 0x2bcc <__fp_szero>
    29ac:	ca c0       	rjmp	.+404    	; 0x2b42 <__fp_nan>

000029ae <__divsf3x>:
    29ae:	eb d0       	rcall	.+470    	; 0x2b86 <__fp_split3>
    29b0:	98 f3       	brcs	.-26     	; 0x2998 <__divsf3+0x4>

000029b2 <__divsf3_pse>:
    29b2:	99 23       	and	r25, r25
    29b4:	c9 f3       	breq	.-14     	; 0x29a8 <__divsf3+0x14>
    29b6:	55 23       	and	r21, r21
    29b8:	b1 f3       	breq	.-20     	; 0x29a6 <__divsf3+0x12>
    29ba:	95 1b       	sub	r25, r21
    29bc:	55 0b       	sbc	r21, r21
    29be:	bb 27       	eor	r27, r27
    29c0:	aa 27       	eor	r26, r26
    29c2:	62 17       	cp	r22, r18
    29c4:	73 07       	cpc	r23, r19
    29c6:	84 07       	cpc	r24, r20
    29c8:	38 f0       	brcs	.+14     	; 0x29d8 <__divsf3_pse+0x26>
    29ca:	9f 5f       	subi	r25, 0xFF	; 255
    29cc:	5f 4f       	sbci	r21, 0xFF	; 255
    29ce:	22 0f       	add	r18, r18
    29d0:	33 1f       	adc	r19, r19
    29d2:	44 1f       	adc	r20, r20
    29d4:	aa 1f       	adc	r26, r26
    29d6:	a9 f3       	breq	.-22     	; 0x29c2 <__divsf3_pse+0x10>
    29d8:	33 d0       	rcall	.+102    	; 0x2a40 <__divsf3_pse+0x8e>
    29da:	0e 2e       	mov	r0, r30
    29dc:	3a f0       	brmi	.+14     	; 0x29ec <__divsf3_pse+0x3a>
    29de:	e0 e8       	ldi	r30, 0x80	; 128
    29e0:	30 d0       	rcall	.+96     	; 0x2a42 <__divsf3_pse+0x90>
    29e2:	91 50       	subi	r25, 0x01	; 1
    29e4:	50 40       	sbci	r21, 0x00	; 0
    29e6:	e6 95       	lsr	r30
    29e8:	00 1c       	adc	r0, r0
    29ea:	ca f7       	brpl	.-14     	; 0x29de <__divsf3_pse+0x2c>
    29ec:	29 d0       	rcall	.+82     	; 0x2a40 <__divsf3_pse+0x8e>
    29ee:	fe 2f       	mov	r31, r30
    29f0:	27 d0       	rcall	.+78     	; 0x2a40 <__divsf3_pse+0x8e>
    29f2:	66 0f       	add	r22, r22
    29f4:	77 1f       	adc	r23, r23
    29f6:	88 1f       	adc	r24, r24
    29f8:	bb 1f       	adc	r27, r27
    29fa:	26 17       	cp	r18, r22
    29fc:	37 07       	cpc	r19, r23
    29fe:	48 07       	cpc	r20, r24
    2a00:	ab 07       	cpc	r26, r27
    2a02:	b0 e8       	ldi	r27, 0x80	; 128
    2a04:	09 f0       	breq	.+2      	; 0x2a08 <__divsf3_pse+0x56>
    2a06:	bb 0b       	sbc	r27, r27
    2a08:	80 2d       	mov	r24, r0
    2a0a:	bf 01       	movw	r22, r30
    2a0c:	ff 27       	eor	r31, r31
    2a0e:	93 58       	subi	r25, 0x83	; 131
    2a10:	5f 4f       	sbci	r21, 0xFF	; 255
    2a12:	2a f0       	brmi	.+10     	; 0x2a1e <__divsf3_pse+0x6c>
    2a14:	9e 3f       	cpi	r25, 0xFE	; 254
    2a16:	51 05       	cpc	r21, r1
    2a18:	68 f0       	brcs	.+26     	; 0x2a34 <__divsf3_pse+0x82>
    2a1a:	8d c0       	rjmp	.+282    	; 0x2b36 <__fp_inf>
    2a1c:	d7 c0       	rjmp	.+430    	; 0x2bcc <__fp_szero>
    2a1e:	5f 3f       	cpi	r21, 0xFF	; 255
    2a20:	ec f3       	brlt	.-6      	; 0x2a1c <__divsf3_pse+0x6a>
    2a22:	98 3e       	cpi	r25, 0xE8	; 232
    2a24:	dc f3       	brlt	.-10     	; 0x2a1c <__divsf3_pse+0x6a>
    2a26:	86 95       	lsr	r24
    2a28:	77 95       	ror	r23
    2a2a:	67 95       	ror	r22
    2a2c:	b7 95       	ror	r27
    2a2e:	f7 95       	ror	r31
    2a30:	9f 5f       	subi	r25, 0xFF	; 255
    2a32:	c9 f7       	brne	.-14     	; 0x2a26 <__divsf3_pse+0x74>
    2a34:	88 0f       	add	r24, r24
    2a36:	91 1d       	adc	r25, r1
    2a38:	96 95       	lsr	r25
    2a3a:	87 95       	ror	r24
    2a3c:	97 f9       	bld	r25, 7
    2a3e:	08 95       	ret
    2a40:	e1 e0       	ldi	r30, 0x01	; 1
    2a42:	66 0f       	add	r22, r22
    2a44:	77 1f       	adc	r23, r23
    2a46:	88 1f       	adc	r24, r24
    2a48:	bb 1f       	adc	r27, r27
    2a4a:	62 17       	cp	r22, r18
    2a4c:	73 07       	cpc	r23, r19
    2a4e:	84 07       	cpc	r24, r20
    2a50:	ba 07       	cpc	r27, r26
    2a52:	20 f0       	brcs	.+8      	; 0x2a5c <__divsf3_pse+0xaa>
    2a54:	62 1b       	sub	r22, r18
    2a56:	73 0b       	sbc	r23, r19
    2a58:	84 0b       	sbc	r24, r20
    2a5a:	ba 0b       	sbc	r27, r26
    2a5c:	ee 1f       	adc	r30, r30
    2a5e:	88 f7       	brcc	.-30     	; 0x2a42 <__divsf3_pse+0x90>
    2a60:	e0 95       	com	r30
    2a62:	08 95       	ret

00002a64 <__fixunssfsi>:
    2a64:	98 d0       	rcall	.+304    	; 0x2b96 <__fp_splitA>
    2a66:	88 f0       	brcs	.+34     	; 0x2a8a <__fixunssfsi+0x26>
    2a68:	9f 57       	subi	r25, 0x7F	; 127
    2a6a:	90 f0       	brcs	.+36     	; 0x2a90 <__fixunssfsi+0x2c>
    2a6c:	b9 2f       	mov	r27, r25
    2a6e:	99 27       	eor	r25, r25
    2a70:	b7 51       	subi	r27, 0x17	; 23
    2a72:	a0 f0       	brcs	.+40     	; 0x2a9c <__fixunssfsi+0x38>
    2a74:	d1 f0       	breq	.+52     	; 0x2aaa <__fixunssfsi+0x46>
    2a76:	66 0f       	add	r22, r22
    2a78:	77 1f       	adc	r23, r23
    2a7a:	88 1f       	adc	r24, r24
    2a7c:	99 1f       	adc	r25, r25
    2a7e:	1a f0       	brmi	.+6      	; 0x2a86 <__fixunssfsi+0x22>
    2a80:	ba 95       	dec	r27
    2a82:	c9 f7       	brne	.-14     	; 0x2a76 <__fixunssfsi+0x12>
    2a84:	12 c0       	rjmp	.+36     	; 0x2aaa <__fixunssfsi+0x46>
    2a86:	b1 30       	cpi	r27, 0x01	; 1
    2a88:	81 f0       	breq	.+32     	; 0x2aaa <__fixunssfsi+0x46>
    2a8a:	9f d0       	rcall	.+318    	; 0x2bca <__fp_zero>
    2a8c:	b1 e0       	ldi	r27, 0x01	; 1
    2a8e:	08 95       	ret
    2a90:	9c c0       	rjmp	.+312    	; 0x2bca <__fp_zero>
    2a92:	67 2f       	mov	r22, r23
    2a94:	78 2f       	mov	r23, r24
    2a96:	88 27       	eor	r24, r24
    2a98:	b8 5f       	subi	r27, 0xF8	; 248
    2a9a:	39 f0       	breq	.+14     	; 0x2aaa <__fixunssfsi+0x46>
    2a9c:	b9 3f       	cpi	r27, 0xF9	; 249
    2a9e:	cc f3       	brlt	.-14     	; 0x2a92 <__fixunssfsi+0x2e>
    2aa0:	86 95       	lsr	r24
    2aa2:	77 95       	ror	r23
    2aa4:	67 95       	ror	r22
    2aa6:	b3 95       	inc	r27
    2aa8:	d9 f7       	brne	.-10     	; 0x2aa0 <__fixunssfsi+0x3c>
    2aaa:	3e f4       	brtc	.+14     	; 0x2aba <__fixunssfsi+0x56>
    2aac:	90 95       	com	r25
    2aae:	80 95       	com	r24
    2ab0:	70 95       	com	r23
    2ab2:	61 95       	neg	r22
    2ab4:	7f 4f       	sbci	r23, 0xFF	; 255
    2ab6:	8f 4f       	sbci	r24, 0xFF	; 255
    2ab8:	9f 4f       	sbci	r25, 0xFF	; 255
    2aba:	08 95       	ret

00002abc <__floatunsisf>:
    2abc:	e8 94       	clt
    2abe:	09 c0       	rjmp	.+18     	; 0x2ad2 <__floatsisf+0x12>

00002ac0 <__floatsisf>:
    2ac0:	97 fb       	bst	r25, 7
    2ac2:	3e f4       	brtc	.+14     	; 0x2ad2 <__floatsisf+0x12>
    2ac4:	90 95       	com	r25
    2ac6:	80 95       	com	r24
    2ac8:	70 95       	com	r23
    2aca:	61 95       	neg	r22
    2acc:	7f 4f       	sbci	r23, 0xFF	; 255
    2ace:	8f 4f       	sbci	r24, 0xFF	; 255
    2ad0:	9f 4f       	sbci	r25, 0xFF	; 255
    2ad2:	99 23       	and	r25, r25
    2ad4:	a9 f0       	breq	.+42     	; 0x2b00 <__floatsisf+0x40>
    2ad6:	f9 2f       	mov	r31, r25
    2ad8:	96 e9       	ldi	r25, 0x96	; 150
    2ada:	bb 27       	eor	r27, r27
    2adc:	93 95       	inc	r25
    2ade:	f6 95       	lsr	r31
    2ae0:	87 95       	ror	r24
    2ae2:	77 95       	ror	r23
    2ae4:	67 95       	ror	r22
    2ae6:	b7 95       	ror	r27
    2ae8:	f1 11       	cpse	r31, r1
    2aea:	f8 cf       	rjmp	.-16     	; 0x2adc <__floatsisf+0x1c>
    2aec:	fa f4       	brpl	.+62     	; 0x2b2c <__floatsisf+0x6c>
    2aee:	bb 0f       	add	r27, r27
    2af0:	11 f4       	brne	.+4      	; 0x2af6 <__floatsisf+0x36>
    2af2:	60 ff       	sbrs	r22, 0
    2af4:	1b c0       	rjmp	.+54     	; 0x2b2c <__floatsisf+0x6c>
    2af6:	6f 5f       	subi	r22, 0xFF	; 255
    2af8:	7f 4f       	sbci	r23, 0xFF	; 255
    2afa:	8f 4f       	sbci	r24, 0xFF	; 255
    2afc:	9f 4f       	sbci	r25, 0xFF	; 255
    2afe:	16 c0       	rjmp	.+44     	; 0x2b2c <__floatsisf+0x6c>
    2b00:	88 23       	and	r24, r24
    2b02:	11 f0       	breq	.+4      	; 0x2b08 <__floatsisf+0x48>
    2b04:	96 e9       	ldi	r25, 0x96	; 150
    2b06:	11 c0       	rjmp	.+34     	; 0x2b2a <__floatsisf+0x6a>
    2b08:	77 23       	and	r23, r23
    2b0a:	21 f0       	breq	.+8      	; 0x2b14 <__floatsisf+0x54>
    2b0c:	9e e8       	ldi	r25, 0x8E	; 142
    2b0e:	87 2f       	mov	r24, r23
    2b10:	76 2f       	mov	r23, r22
    2b12:	05 c0       	rjmp	.+10     	; 0x2b1e <__floatsisf+0x5e>
    2b14:	66 23       	and	r22, r22
    2b16:	71 f0       	breq	.+28     	; 0x2b34 <__floatsisf+0x74>
    2b18:	96 e8       	ldi	r25, 0x86	; 134
    2b1a:	86 2f       	mov	r24, r22
    2b1c:	70 e0       	ldi	r23, 0x00	; 0
    2b1e:	60 e0       	ldi	r22, 0x00	; 0
    2b20:	2a f0       	brmi	.+10     	; 0x2b2c <__floatsisf+0x6c>
    2b22:	9a 95       	dec	r25
    2b24:	66 0f       	add	r22, r22
    2b26:	77 1f       	adc	r23, r23
    2b28:	88 1f       	adc	r24, r24
    2b2a:	da f7       	brpl	.-10     	; 0x2b22 <__floatsisf+0x62>
    2b2c:	88 0f       	add	r24, r24
    2b2e:	96 95       	lsr	r25
    2b30:	87 95       	ror	r24
    2b32:	97 f9       	bld	r25, 7
    2b34:	08 95       	ret

00002b36 <__fp_inf>:
    2b36:	97 f9       	bld	r25, 7
    2b38:	9f 67       	ori	r25, 0x7F	; 127
    2b3a:	80 e8       	ldi	r24, 0x80	; 128
    2b3c:	70 e0       	ldi	r23, 0x00	; 0
    2b3e:	60 e0       	ldi	r22, 0x00	; 0
    2b40:	08 95       	ret

00002b42 <__fp_nan>:
    2b42:	9f ef       	ldi	r25, 0xFF	; 255
    2b44:	80 ec       	ldi	r24, 0xC0	; 192
    2b46:	08 95       	ret

00002b48 <__fp_pscA>:
    2b48:	00 24       	eor	r0, r0
    2b4a:	0a 94       	dec	r0
    2b4c:	16 16       	cp	r1, r22
    2b4e:	17 06       	cpc	r1, r23
    2b50:	18 06       	cpc	r1, r24
    2b52:	09 06       	cpc	r0, r25
    2b54:	08 95       	ret

00002b56 <__fp_pscB>:
    2b56:	00 24       	eor	r0, r0
    2b58:	0a 94       	dec	r0
    2b5a:	12 16       	cp	r1, r18
    2b5c:	13 06       	cpc	r1, r19
    2b5e:	14 06       	cpc	r1, r20
    2b60:	05 06       	cpc	r0, r21
    2b62:	08 95       	ret

00002b64 <__fp_round>:
    2b64:	09 2e       	mov	r0, r25
    2b66:	03 94       	inc	r0
    2b68:	00 0c       	add	r0, r0
    2b6a:	11 f4       	brne	.+4      	; 0x2b70 <__fp_round+0xc>
    2b6c:	88 23       	and	r24, r24
    2b6e:	52 f0       	brmi	.+20     	; 0x2b84 <__fp_round+0x20>
    2b70:	bb 0f       	add	r27, r27
    2b72:	40 f4       	brcc	.+16     	; 0x2b84 <__fp_round+0x20>
    2b74:	bf 2b       	or	r27, r31
    2b76:	11 f4       	brne	.+4      	; 0x2b7c <__fp_round+0x18>
    2b78:	60 ff       	sbrs	r22, 0
    2b7a:	04 c0       	rjmp	.+8      	; 0x2b84 <__fp_round+0x20>
    2b7c:	6f 5f       	subi	r22, 0xFF	; 255
    2b7e:	7f 4f       	sbci	r23, 0xFF	; 255
    2b80:	8f 4f       	sbci	r24, 0xFF	; 255
    2b82:	9f 4f       	sbci	r25, 0xFF	; 255
    2b84:	08 95       	ret

00002b86 <__fp_split3>:
    2b86:	57 fd       	sbrc	r21, 7
    2b88:	90 58       	subi	r25, 0x80	; 128
    2b8a:	44 0f       	add	r20, r20
    2b8c:	55 1f       	adc	r21, r21
    2b8e:	59 f0       	breq	.+22     	; 0x2ba6 <__fp_splitA+0x10>
    2b90:	5f 3f       	cpi	r21, 0xFF	; 255
    2b92:	71 f0       	breq	.+28     	; 0x2bb0 <__fp_splitA+0x1a>
    2b94:	47 95       	ror	r20

00002b96 <__fp_splitA>:
    2b96:	88 0f       	add	r24, r24
    2b98:	97 fb       	bst	r25, 7
    2b9a:	99 1f       	adc	r25, r25
    2b9c:	61 f0       	breq	.+24     	; 0x2bb6 <__fp_splitA+0x20>
    2b9e:	9f 3f       	cpi	r25, 0xFF	; 255
    2ba0:	79 f0       	breq	.+30     	; 0x2bc0 <__fp_splitA+0x2a>
    2ba2:	87 95       	ror	r24
    2ba4:	08 95       	ret
    2ba6:	12 16       	cp	r1, r18
    2ba8:	13 06       	cpc	r1, r19
    2baa:	14 06       	cpc	r1, r20
    2bac:	55 1f       	adc	r21, r21
    2bae:	f2 cf       	rjmp	.-28     	; 0x2b94 <__fp_split3+0xe>
    2bb0:	46 95       	lsr	r20
    2bb2:	f1 df       	rcall	.-30     	; 0x2b96 <__fp_splitA>
    2bb4:	08 c0       	rjmp	.+16     	; 0x2bc6 <__fp_splitA+0x30>
    2bb6:	16 16       	cp	r1, r22
    2bb8:	17 06       	cpc	r1, r23
    2bba:	18 06       	cpc	r1, r24
    2bbc:	99 1f       	adc	r25, r25
    2bbe:	f1 cf       	rjmp	.-30     	; 0x2ba2 <__fp_splitA+0xc>
    2bc0:	86 95       	lsr	r24
    2bc2:	71 05       	cpc	r23, r1
    2bc4:	61 05       	cpc	r22, r1
    2bc6:	08 94       	sec
    2bc8:	08 95       	ret

00002bca <__fp_zero>:
    2bca:	e8 94       	clt

00002bcc <__fp_szero>:
    2bcc:	bb 27       	eor	r27, r27
    2bce:	66 27       	eor	r22, r22
    2bd0:	77 27       	eor	r23, r23
    2bd2:	cb 01       	movw	r24, r22
    2bd4:	97 f9       	bld	r25, 7
    2bd6:	08 95       	ret

00002bd8 <__mulsf3>:
    2bd8:	0b d0       	rcall	.+22     	; 0x2bf0 <__mulsf3x>
    2bda:	c4 cf       	rjmp	.-120    	; 0x2b64 <__fp_round>
    2bdc:	b5 df       	rcall	.-150    	; 0x2b48 <__fp_pscA>
    2bde:	28 f0       	brcs	.+10     	; 0x2bea <__mulsf3+0x12>
    2be0:	ba df       	rcall	.-140    	; 0x2b56 <__fp_pscB>
    2be2:	18 f0       	brcs	.+6      	; 0x2bea <__mulsf3+0x12>
    2be4:	95 23       	and	r25, r21
    2be6:	09 f0       	breq	.+2      	; 0x2bea <__mulsf3+0x12>
    2be8:	a6 cf       	rjmp	.-180    	; 0x2b36 <__fp_inf>
    2bea:	ab cf       	rjmp	.-170    	; 0x2b42 <__fp_nan>
    2bec:	11 24       	eor	r1, r1
    2bee:	ee cf       	rjmp	.-36     	; 0x2bcc <__fp_szero>

00002bf0 <__mulsf3x>:
    2bf0:	ca df       	rcall	.-108    	; 0x2b86 <__fp_split3>
    2bf2:	a0 f3       	brcs	.-24     	; 0x2bdc <__mulsf3+0x4>

00002bf4 <__mulsf3_pse>:
    2bf4:	95 9f       	mul	r25, r21
    2bf6:	d1 f3       	breq	.-12     	; 0x2bec <__mulsf3+0x14>
    2bf8:	95 0f       	add	r25, r21
    2bfa:	50 e0       	ldi	r21, 0x00	; 0
    2bfc:	55 1f       	adc	r21, r21
    2bfe:	62 9f       	mul	r22, r18
    2c00:	f0 01       	movw	r30, r0
    2c02:	72 9f       	mul	r23, r18
    2c04:	bb 27       	eor	r27, r27
    2c06:	f0 0d       	add	r31, r0
    2c08:	b1 1d       	adc	r27, r1
    2c0a:	63 9f       	mul	r22, r19
    2c0c:	aa 27       	eor	r26, r26
    2c0e:	f0 0d       	add	r31, r0
    2c10:	b1 1d       	adc	r27, r1
    2c12:	aa 1f       	adc	r26, r26
    2c14:	64 9f       	mul	r22, r20
    2c16:	66 27       	eor	r22, r22
    2c18:	b0 0d       	add	r27, r0
    2c1a:	a1 1d       	adc	r26, r1
    2c1c:	66 1f       	adc	r22, r22
    2c1e:	82 9f       	mul	r24, r18
    2c20:	22 27       	eor	r18, r18
    2c22:	b0 0d       	add	r27, r0
    2c24:	a1 1d       	adc	r26, r1
    2c26:	62 1f       	adc	r22, r18
    2c28:	73 9f       	mul	r23, r19
    2c2a:	b0 0d       	add	r27, r0
    2c2c:	a1 1d       	adc	r26, r1
    2c2e:	62 1f       	adc	r22, r18
    2c30:	83 9f       	mul	r24, r19
    2c32:	a0 0d       	add	r26, r0
    2c34:	61 1d       	adc	r22, r1
    2c36:	22 1f       	adc	r18, r18
    2c38:	74 9f       	mul	r23, r20
    2c3a:	33 27       	eor	r19, r19
    2c3c:	a0 0d       	add	r26, r0
    2c3e:	61 1d       	adc	r22, r1
    2c40:	23 1f       	adc	r18, r19
    2c42:	84 9f       	mul	r24, r20
    2c44:	60 0d       	add	r22, r0
    2c46:	21 1d       	adc	r18, r1
    2c48:	82 2f       	mov	r24, r18
    2c4a:	76 2f       	mov	r23, r22
    2c4c:	6a 2f       	mov	r22, r26
    2c4e:	11 24       	eor	r1, r1
    2c50:	9f 57       	subi	r25, 0x7F	; 127
    2c52:	50 40       	sbci	r21, 0x00	; 0
    2c54:	8a f0       	brmi	.+34     	; 0x2c78 <__mulsf3_pse+0x84>
    2c56:	e1 f0       	breq	.+56     	; 0x2c90 <__mulsf3_pse+0x9c>
    2c58:	88 23       	and	r24, r24
    2c5a:	4a f0       	brmi	.+18     	; 0x2c6e <__mulsf3_pse+0x7a>
    2c5c:	ee 0f       	add	r30, r30
    2c5e:	ff 1f       	adc	r31, r31
    2c60:	bb 1f       	adc	r27, r27
    2c62:	66 1f       	adc	r22, r22
    2c64:	77 1f       	adc	r23, r23
    2c66:	88 1f       	adc	r24, r24
    2c68:	91 50       	subi	r25, 0x01	; 1
    2c6a:	50 40       	sbci	r21, 0x00	; 0
    2c6c:	a9 f7       	brne	.-22     	; 0x2c58 <__mulsf3_pse+0x64>
    2c6e:	9e 3f       	cpi	r25, 0xFE	; 254
    2c70:	51 05       	cpc	r21, r1
    2c72:	70 f0       	brcs	.+28     	; 0x2c90 <__mulsf3_pse+0x9c>
    2c74:	60 cf       	rjmp	.-320    	; 0x2b36 <__fp_inf>
    2c76:	aa cf       	rjmp	.-172    	; 0x2bcc <__fp_szero>
    2c78:	5f 3f       	cpi	r21, 0xFF	; 255
    2c7a:	ec f3       	brlt	.-6      	; 0x2c76 <__mulsf3_pse+0x82>
    2c7c:	98 3e       	cpi	r25, 0xE8	; 232
    2c7e:	dc f3       	brlt	.-10     	; 0x2c76 <__mulsf3_pse+0x82>
    2c80:	86 95       	lsr	r24
    2c82:	77 95       	ror	r23
    2c84:	67 95       	ror	r22
    2c86:	b7 95       	ror	r27
    2c88:	f7 95       	ror	r31
    2c8a:	e7 95       	ror	r30
    2c8c:	9f 5f       	subi	r25, 0xFF	; 255
    2c8e:	c1 f7       	brne	.-16     	; 0x2c80 <__mulsf3_pse+0x8c>
    2c90:	fe 2b       	or	r31, r30
    2c92:	88 0f       	add	r24, r24
    2c94:	91 1d       	adc	r25, r1
    2c96:	96 95       	lsr	r25
    2c98:	87 95       	ror	r24
    2c9a:	97 f9       	bld	r25, 7
    2c9c:	08 95       	ret

00002c9e <__divmodhi4>:
    2c9e:	97 fb       	bst	r25, 7
    2ca0:	09 2e       	mov	r0, r25
    2ca2:	07 26       	eor	r0, r23
    2ca4:	0a d0       	rcall	.+20     	; 0x2cba <__divmodhi4_neg1>
    2ca6:	77 fd       	sbrc	r23, 7
    2ca8:	04 d0       	rcall	.+8      	; 0x2cb2 <__divmodhi4_neg2>
    2caa:	2b d0       	rcall	.+86     	; 0x2d02 <__udivmodhi4>
    2cac:	06 d0       	rcall	.+12     	; 0x2cba <__divmodhi4_neg1>
    2cae:	00 20       	and	r0, r0
    2cb0:	1a f4       	brpl	.+6      	; 0x2cb8 <__divmodhi4_exit>

00002cb2 <__divmodhi4_neg2>:
    2cb2:	70 95       	com	r23
    2cb4:	61 95       	neg	r22
    2cb6:	7f 4f       	sbci	r23, 0xFF	; 255

00002cb8 <__divmodhi4_exit>:
    2cb8:	08 95       	ret

00002cba <__divmodhi4_neg1>:
    2cba:	f6 f7       	brtc	.-4      	; 0x2cb8 <__divmodhi4_exit>
    2cbc:	90 95       	com	r25
    2cbe:	81 95       	neg	r24
    2cc0:	9f 4f       	sbci	r25, 0xFF	; 255
    2cc2:	08 95       	ret

00002cc4 <__mulsi3>:
    2cc4:	62 9f       	mul	r22, r18
    2cc6:	d0 01       	movw	r26, r0
    2cc8:	73 9f       	mul	r23, r19
    2cca:	f0 01       	movw	r30, r0
    2ccc:	82 9f       	mul	r24, r18
    2cce:	e0 0d       	add	r30, r0
    2cd0:	f1 1d       	adc	r31, r1
    2cd2:	64 9f       	mul	r22, r20
    2cd4:	e0 0d       	add	r30, r0
    2cd6:	f1 1d       	adc	r31, r1
    2cd8:	92 9f       	mul	r25, r18
    2cda:	f0 0d       	add	r31, r0
    2cdc:	83 9f       	mul	r24, r19
    2cde:	f0 0d       	add	r31, r0
    2ce0:	74 9f       	mul	r23, r20
    2ce2:	f0 0d       	add	r31, r0
    2ce4:	65 9f       	mul	r22, r21
    2ce6:	f0 0d       	add	r31, r0
    2ce8:	99 27       	eor	r25, r25
    2cea:	72 9f       	mul	r23, r18
    2cec:	b0 0d       	add	r27, r0
    2cee:	e1 1d       	adc	r30, r1
    2cf0:	f9 1f       	adc	r31, r25
    2cf2:	63 9f       	mul	r22, r19
    2cf4:	b0 0d       	add	r27, r0
    2cf6:	e1 1d       	adc	r30, r1
    2cf8:	f9 1f       	adc	r31, r25
    2cfa:	bd 01       	movw	r22, r26
    2cfc:	cf 01       	movw	r24, r30
    2cfe:	11 24       	eor	r1, r1
    2d00:	08 95       	ret

00002d02 <__udivmodhi4>:
    2d02:	aa 1b       	sub	r26, r26
    2d04:	bb 1b       	sub	r27, r27
    2d06:	51 e1       	ldi	r21, 0x11	; 17
    2d08:	07 c0       	rjmp	.+14     	; 0x2d18 <__udivmodhi4_ep>

00002d0a <__udivmodhi4_loop>:
    2d0a:	aa 1f       	adc	r26, r26
    2d0c:	bb 1f       	adc	r27, r27
    2d0e:	a6 17       	cp	r26, r22
    2d10:	b7 07       	cpc	r27, r23
    2d12:	10 f0       	brcs	.+4      	; 0x2d18 <__udivmodhi4_ep>
    2d14:	a6 1b       	sub	r26, r22
    2d16:	b7 0b       	sbc	r27, r23

00002d18 <__udivmodhi4_ep>:
    2d18:	88 1f       	adc	r24, r24
    2d1a:	99 1f       	adc	r25, r25
    2d1c:	5a 95       	dec	r21
    2d1e:	a9 f7       	brne	.-22     	; 0x2d0a <__udivmodhi4_loop>
    2d20:	80 95       	com	r24
    2d22:	90 95       	com	r25
    2d24:	bc 01       	movw	r22, r24
    2d26:	cd 01       	movw	r24, r26
    2d28:	08 95       	ret

00002d2a <__udivmodsi4>:
    2d2a:	a1 e2       	ldi	r26, 0x21	; 33
    2d2c:	1a 2e       	mov	r1, r26
    2d2e:	aa 1b       	sub	r26, r26
    2d30:	bb 1b       	sub	r27, r27
    2d32:	fd 01       	movw	r30, r26
    2d34:	0d c0       	rjmp	.+26     	; 0x2d50 <__udivmodsi4_ep>

00002d36 <__udivmodsi4_loop>:
    2d36:	aa 1f       	adc	r26, r26
    2d38:	bb 1f       	adc	r27, r27
    2d3a:	ee 1f       	adc	r30, r30
    2d3c:	ff 1f       	adc	r31, r31
    2d3e:	a2 17       	cp	r26, r18
    2d40:	b3 07       	cpc	r27, r19
    2d42:	e4 07       	cpc	r30, r20
    2d44:	f5 07       	cpc	r31, r21
    2d46:	20 f0       	brcs	.+8      	; 0x2d50 <__udivmodsi4_ep>
    2d48:	a2 1b       	sub	r26, r18
    2d4a:	b3 0b       	sbc	r27, r19
    2d4c:	e4 0b       	sbc	r30, r20
    2d4e:	f5 0b       	sbc	r31, r21

00002d50 <__udivmodsi4_ep>:
    2d50:	66 1f       	adc	r22, r22
    2d52:	77 1f       	adc	r23, r23
    2d54:	88 1f       	adc	r24, r24
    2d56:	99 1f       	adc	r25, r25
    2d58:	1a 94       	dec	r1
    2d5a:	69 f7       	brne	.-38     	; 0x2d36 <__udivmodsi4_loop>
    2d5c:	60 95       	com	r22
    2d5e:	70 95       	com	r23
    2d60:	80 95       	com	r24
    2d62:	90 95       	com	r25
    2d64:	9b 01       	movw	r18, r22
    2d66:	ac 01       	movw	r20, r24
    2d68:	bd 01       	movw	r22, r26
    2d6a:	cf 01       	movw	r24, r30
    2d6c:	08 95       	ret

00002d6e <__prologue_saves__>:
    2d6e:	2f 92       	push	r2
    2d70:	3f 92       	push	r3
    2d72:	4f 92       	push	r4
    2d74:	5f 92       	push	r5
    2d76:	6f 92       	push	r6
    2d78:	7f 92       	push	r7
    2d7a:	8f 92       	push	r8
    2d7c:	9f 92       	push	r9
    2d7e:	af 92       	push	r10
    2d80:	bf 92       	push	r11
    2d82:	cf 92       	push	r12
    2d84:	df 92       	push	r13
    2d86:	ef 92       	push	r14
    2d88:	ff 92       	push	r15
    2d8a:	0f 93       	push	r16
    2d8c:	1f 93       	push	r17
    2d8e:	cf 93       	push	r28
    2d90:	df 93       	push	r29
    2d92:	cd b7       	in	r28, 0x3d	; 61
    2d94:	de b7       	in	r29, 0x3e	; 62
    2d96:	ca 1b       	sub	r28, r26
    2d98:	db 0b       	sbc	r29, r27
    2d9a:	0f b6       	in	r0, 0x3f	; 63
    2d9c:	f8 94       	cli
    2d9e:	de bf       	out	0x3e, r29	; 62
    2da0:	0f be       	out	0x3f, r0	; 63
    2da2:	cd bf       	out	0x3d, r28	; 61
    2da4:	09 94       	ijmp

00002da6 <__epilogue_restores__>:
    2da6:	2a 88       	ldd	r2, Y+18	; 0x12
    2da8:	39 88       	ldd	r3, Y+17	; 0x11
    2daa:	48 88       	ldd	r4, Y+16	; 0x10
    2dac:	5f 84       	ldd	r5, Y+15	; 0x0f
    2dae:	6e 84       	ldd	r6, Y+14	; 0x0e
    2db0:	7d 84       	ldd	r7, Y+13	; 0x0d
    2db2:	8c 84       	ldd	r8, Y+12	; 0x0c
    2db4:	9b 84       	ldd	r9, Y+11	; 0x0b
    2db6:	aa 84       	ldd	r10, Y+10	; 0x0a
    2db8:	b9 84       	ldd	r11, Y+9	; 0x09
    2dba:	c8 84       	ldd	r12, Y+8	; 0x08
    2dbc:	df 80       	ldd	r13, Y+7	; 0x07
    2dbe:	ee 80       	ldd	r14, Y+6	; 0x06
    2dc0:	fd 80       	ldd	r15, Y+5	; 0x05
    2dc2:	0c 81       	ldd	r16, Y+4	; 0x04
    2dc4:	1b 81       	ldd	r17, Y+3	; 0x03
    2dc6:	aa 81       	ldd	r26, Y+2	; 0x02
    2dc8:	b9 81       	ldd	r27, Y+1	; 0x01
    2dca:	ce 0f       	add	r28, r30
    2dcc:	d1 1d       	adc	r29, r1
    2dce:	0f b6       	in	r0, 0x3f	; 63
    2dd0:	f8 94       	cli
    2dd2:	de bf       	out	0x3e, r29	; 62
    2dd4:	0f be       	out	0x3f, r0	; 63
    2dd6:	cd bf       	out	0x3d, r28	; 61
    2dd8:	ed 01       	movw	r28, r26
    2dda:	08 95       	ret

00002ddc <_exit>:
    2ddc:	f8 94       	cli

00002dde <__stop_program>:
    2dde:	ff cf       	rjmp	.-2      	; 0x2dde <__stop_program>
